(lp0
ccopy_reg
_reconstructor
p1
(cgeometry_msgs.msg._PoseStamped
PoseStamped
p2
c__builtin__
object
p3
Ntp4
Rp5
(lp6
g1
(cstd_msgs.msg._Header
Header
p7
g3
Ntp8
Rp9
(lp10
I0
ag1
(crospy.rostime
Time
p11
g3
Ntp12
Rp13
(lp14
I1607448788
aI796116113
abaS'world'
p15
abag1
(cgeometry_msgs.msg._Pose
Pose
p16
g3
Ntp17
Rp18
(lp19
g1
(cgeometry_msgs.msg._Point
Point
p20
g3
Ntp21
Rp22
(lp23
F-0.35808680847921975
aF-0.21196557230314708
aF0.3731766925297096
abag1
(cgeometry_msgs.msg._Quaternion
Quaternion
p24
g3
Ntp25
Rp26
(lp27
F0.5084835615286016
aF0.48407299666887066
aF-0.4984808418730582
aF0.5085613550366721
abababag1
(g2
g3
Ntp28
Rp29
(lp30
g1
(g7
g3
Ntp31
Rp32
(lp33
I0
ag1
(g11
g3
Ntp34
Rp35
(lp36
I1607448794
aI556022882
abaS'world'
p37
abag1
(g16
g3
Ntp38
Rp39
(lp40
g1
(g20
g3
Ntp41
Rp42
(lp43
F-0.3591164230457751
aF-0.21203854075551204
aF0.3702871360131082
abag1
(g24
g3
Ntp44
Rp45
(lp46
F0.5106729527218002
aF0.4821879427313767
aF-0.49625353287285373
aF0.5103335716510254
abababag1
(g2
g3
Ntp47
Rp48
(lp49
g1
(g7
g3
Ntp50
Rp51
(lp52
I0
ag1
(g11
g3
Ntp53
Rp54
(lp55
I1607448795
aI19772052
abaS'world'
p56
abag1
(g16
g3
Ntp57
Rp58
(lp59
g1
(g20
g3
Ntp60
Rp61
(lp62
F-0.36072402273907356
aF-0.21215342028138515
aF0.36774301473989207
abag1
(g24
g3
Ntp63
Rp64
(lp65
F0.5113734645149965
aF0.48156941225291783
aF-0.49559146664793696
aF0.5108592557231946
abababag1
(g2
g3
Ntp66
Rp67
(lp68
g1
(g7
g3
Ntp69
Rp70
(lp71
I0
ag1
(g11
g3
Ntp72
Rp73
(lp74
I1607448796
aI35849094
abaS'world'
p75
abag1
(g16
g3
Ntp76
Rp77
(lp78
g1
(g20
g3
Ntp79
Rp80
(lp81
F-0.3623211392106987
aF-0.21221671580144383
aF0.3651376656597084
abag1
(g24
g3
Ntp82
Rp83
(lp84
F0.512395185617877
aF0.48098721167755965
aF-0.49455102274238094
aF0.5113919845507293
abababag1
(g2
g3
Ntp85
Rp86
(lp87
g1
(g7
g3
Ntp88
Rp89
(lp90
I0
ag1
(g11
g3
Ntp91
Rp92
(lp93
I1607448797
aI955876111
abaS'world'
p94
abag1
(g16
g3
Ntp95
Rp96
(lp97
g1
(g20
g3
Ntp98
Rp99
(lp100
F-0.3633886535678115
aF-0.2108370951146881
aF0.36266322070051693
abag1
(g24
g3
Ntp101
Rp102
(lp103
F0.5162737084801653
aF0.4859570188869623
aF-0.49056581763194423
aF0.5066087368943969
abababag1
(g2
g3
Ntp104
Rp105
(lp106
g1
(g7
g3
Ntp107
Rp108
(lp109
I0
ag1
(g11
g3
Ntp110
Rp111
(lp112
I1607448798
aI107352972
abaS'world'
p113
abag1
(g16
g3
Ntp114
Rp115
(lp116
g1
(g20
g3
Ntp117
Rp118
(lp119
F-0.3639355241764399
aF-0.21089310321750365
aF0.3596436028176403
abag1
(g24
g3
Ntp120
Rp121
(lp122
F0.5134586821669878
aF0.48841189355245457
aF-0.49356916455727207
aF0.5041859614686657
abababag1
(g2
g3
Ntp123
Rp124
(lp125
g1
(g7
g3
Ntp126
Rp127
(lp128
I0
ag1
(g11
g3
Ntp129
Rp130
(lp131
I1607448798
aI187607049
abaS'world'
p132
abag1
(g16
g3
Ntp133
Rp134
(lp135
g1
(g20
g3
Ntp136
Rp137
(lp138
F-0.36361309824437416
aF-0.21104481736957775
aF0.35639187566608665
abag1
(g24
g3
Ntp139
Rp140
(lp141
F0.5127532520390711
aF0.48797236442605557
aF-0.4943760701591986
aF0.5045387748565504
abababag1
(g2
g3
Ntp142
Rp143
(lp144
g1
(g7
g3
Ntp145
Rp146
(lp147
I0
ag1
(g11
g3
Ntp148
Rp149
(lp150
I1607448798
aI259304046
abaS'world'
p151
abag1
(g16
g3
Ntp152
Rp153
(lp154
g1
(g20
g3
Ntp155
Rp156
(lp157
F-0.3624796103945833
aF-0.21144788980635543
aF0.3534680967804792
abag1
(g24
g3
Ntp158
Rp159
(lp160
F0.5139732864983885
aF0.4841170243726286
aF-0.4931147656190487
aF0.5082322258644256
abababag1
(g2
g3
Ntp161
Rp162
(lp163
g1
(g7
g3
Ntp164
Rp165
(lp166
I0
ag1
(g11
g3
Ntp167
Rp168
(lp169
I1607448799
aI524111032
abaS'world'
p170
abag1
(g16
g3
Ntp171
Rp172
(lp173
g1
(g20
g3
Ntp174
Rp175
(lp176
F-0.36269992183079713
aF-0.21156401246181417
aF0.35045793041813106
abag1
(g24
g3
Ntp177
Rp178
(lp179
F0.5156497304533948
aF0.48229974465276687
aF-0.49131783313966204
aF0.5099991163033173
abababag1
(g2
g3
Ntp180
Rp181
(lp182
g1
(g7
g3
Ntp183
Rp184
(lp185
I0
ag1
(g11
g3
Ntp186
Rp187
(lp188
I1607448799
aI995569944
abaS'world'
p189
abag1
(g16
g3
Ntp190
Rp191
(lp192
g1
(g20
g3
Ntp193
Rp194
(lp195
F-0.36303162472290273
aF-0.21156426568359618
aF0.35034179447060304
abag1
(g24
g3
Ntp196
Rp197
(lp198
F0.5148176813907291
aF0.4830714142232155
aF-0.49225206613343325
aF0.5092078819845808
abababag1
(g2
g3
Ntp199
Rp200
(lp201
g1
(g7
g3
Ntp202
Rp203
(lp204
I0
ag1
(g11
g3
Ntp205
Rp206
(lp207
I1607448799
aI995569944
abag189
abag1
(g16
g3
Ntp208
Rp209
(lp210
g1
(g20
g3
Ntp211
Rp212
(lp213
F-0.36303162472290273
aF-0.21156426568359618
aF0.34734179447060304
abag1
(g24
g3
Ntp214
Rp215
(lp216
F0.5148176813907291
aF0.4830714142232155
aF-0.49225206613343325
aF0.5092078819845808
abababag1
(g2
g3
Ntp217
Rp218
(lp219
g1
(g7
g3
Ntp220
Rp221
(lp222
I0
ag1
(g11
g3
Ntp223
Rp224
(lp225
I1607448800
aI99800109
abaS'world'
p226
abag1
(g16
g3
Ntp227
Rp228
(lp229
g1
(g20
g3
Ntp230
Rp231
(lp232
F-0.3632946756439967
aF-0.21157448160927816
aF0.34723042516568026
abag1
(g24
g3
Ntp233
Rp234
(lp235
F0.5119418886921168
aF0.48561001676977156
aF-0.49534018832278665
aF0.506691732760223
abababag1
(g2
g3
Ntp236
Rp237
(lp238
g1
(g7
g3
Ntp239
Rp240
(lp241
I0
ag1
(g11
g3
Ntp242
Rp243
(lp244
I1607448800
aI99800109
abag226
abag1
(g16
g3
Ntp245
Rp246
(lp247
g1
(g20
g3
Ntp248
Rp249
(lp250
F-0.3632946756439967
aF-0.21157448160927816
aF0.34423042516568025
abag1
(g24
g3
Ntp251
Rp252
(lp253
F0.5119418886921168
aF0.48561001676977156
aF-0.49534018832278665
aF0.506691732760223
abababag1
(g2
g3
Ntp254
Rp255
(lp256
g1
(g7
g3
Ntp257
Rp258
(lp259
I0
ag1
(g11
g3
Ntp260
Rp261
(lp262
I1607448800
aI163460016
abaS'world'
p263
abag1
(g16
g3
Ntp264
Rp265
(lp266
g1
(g20
g3
Ntp267
Rp268
(lp269
F-0.36276457447418686
aF-0.2115272174553515
aF0.34423753848143057
abag1
(g24
g3
Ntp270
Rp271
(lp272
F0.5117889077384351
aF0.48574732009630395
aF-0.4955591983616432
aF0.5065004796190469
abababag1
(g2
g3
Ntp273
Rp274
(lp275
g1
(g7
g3
Ntp276
Rp277
(lp278
I0
ag1
(g11
g3
Ntp279
Rp280
(lp281
I1607448800
aI163460016
abag263
abag1
(g16
g3
Ntp282
Rp283
(lp284
g1
(g20
g3
Ntp285
Rp286
(lp287
F-0.36276457447418686
aF-0.2115272174553515
aF0.34123753848143057
abag1
(g24
g3
Ntp288
Rp289
(lp290
F0.5117889077384351
aF0.48574732009630395
aF-0.4955591983616432
aF0.5065004796190469
abababag1
(g2
g3
Ntp291
Rp292
(lp293
g1
(g7
g3
Ntp294
Rp295
(lp296
I0
ag1
(g11
g3
Ntp297
Rp298
(lp299
I1607448800
aI243632078
abaS'world'
p300
abag1
(g16
g3
Ntp301
Rp302
(lp303
g1
(g20
g3
Ntp304
Rp305
(lp306
F-0.3617586722763472
aF-0.21144645362319597
aF0.34124226124208157
abag1
(g24
g3
Ntp307
Rp308
(lp309
F0.5133685558499852
aF0.48440052628817426
aF-0.493920735235281
aF0.5077904718492465
abababag1
(g2
g3
Ntp310
Rp311
(lp312
g1
(g7
g3
Ntp313
Rp314
(lp315
I0
ag1
(g11
g3
Ntp316
Rp317
(lp318
I1607448800
aI243632078
abag300
abag1
(g16
g3
Ntp319
Rp320
(lp321
g1
(g20
g3
Ntp322
Rp323
(lp324
F-0.3617586722763472
aF-0.21144645362319597
aF0.33824226124208157
abag1
(g24
g3
Ntp325
Rp326
(lp327
F0.5133685558499852
aF0.48440052628817426
aF-0.493920735235281
aF0.5077904718492465
abababag1
(g2
g3
Ntp328
Rp329
(lp330
g1
(g7
g3
Ntp331
Rp332
(lp333
I0
ag1
(g11
g3
Ntp334
Rp335
(lp336
I1607448800
aI675482034
abaS'world'
p337
abag1
(g16
g3
Ntp338
Rp339
(lp340
g1
(g20
g3
Ntp341
Rp342
(lp343
F-0.36160037002231854
aF-0.21143021924759842
aF0.33797788181569455
abag1
(g24
g3
Ntp344
Rp345
(lp346
F0.5111700034445859
aF0.486353580749731
aF-0.4962664087998642
aF0.5058508412242322
abababag1
(g2
g3
Ntp347
Rp348
(lp349
g1
(g7
g3
Ntp350
Rp351
(lp352
I0
ag1
(g11
g3
Ntp353
Rp354
(lp355
I1607448800
aI675482034
abag337
abag1
(g16
g3
Ntp356
Rp357
(lp358
g1
(g20
g3
Ntp359
Rp360
(lp361
F-0.36160037002231854
aF-0.21143021924759842
aF0.33497788181569454
abag1
(g24
g3
Ntp362
Rp363
(lp364
F0.5111700034445859
aF0.486353580749731
aF-0.4962664087998642
aF0.5058508412242322
abababag1
(g2
g3
Ntp365
Rp366
(lp367
g1
(g7
g3
Ntp368
Rp369
(lp370
I0
ag1
(g11
g3
Ntp371
Rp372
(lp373
I1607448800
aI755533933
abaS'world'
p374
abag1
(g16
g3
Ntp375
Rp376
(lp377
g1
(g20
g3
Ntp378
Rp379
(lp380
F-0.3608198502870542
aF-0.2113421119862588
aF0.3350576808602166
abag1
(g24
g3
Ntp381
Rp382
(lp383
F0.5116003547073544
aF0.4860112618662404
aF-0.4958726363652877
aF0.5061308713234488
abababag1
(g2
g3
Ntp384
Rp385
(lp386
g1
(g7
g3
Ntp387
Rp388
(lp389
I0
ag1
(g11
g3
Ntp390
Rp391
(lp392
I1607448800
aI755533933
abag374
abag1
(g16
g3
Ntp393
Rp394
(lp395
g1
(g20
g3
Ntp396
Rp397
(lp398
F-0.3608198502870542
aF-0.2113421119862588
aF0.3320576808602166
abag1
(g24
g3
Ntp399
Rp400
(lp401
F0.5116003547073544
aF0.4860112618662404
aF-0.4958726363652877
aF0.5061308713234488
abababag1
(g2
g3
Ntp402
Rp403
(lp404
g1
(g7
g3
Ntp405
Rp406
(lp407
I0
ag1
(g11
g3
Ntp408
Rp409
(lp410
I1607448800
aI931456089
abaS'world'
p411
abag1
(g16
g3
Ntp412
Rp413
(lp414
g1
(g20
g3
Ntp415
Rp416
(lp417
F-0.3604223442463362
aF-0.21131596038787062
aF0.3320365297517386
abag1
(g24
g3
Ntp418
Rp419
(lp420
F0.5101349861426625
aF0.48729888589486214
aF-0.49744191424866363
aF0.5048303018515005
abababag1
(g2
g3
Ntp421
Rp422
(lp423
g1
(g7
g3
Ntp424
Rp425
(lp426
I0
ag1
(g11
g3
Ntp427
Rp428
(lp429
I1607448800
aI931456089
abag411
abag1
(g16
g3
Ntp430
Rp431
(lp432
g1
(g20
g3
Ntp433
Rp434
(lp435
F-0.3604223442463362
aF-0.21131596038787062
aF0.3290365297517386
abag1
(g24
g3
Ntp436
Rp437
(lp438
F0.5101349861426625
aF0.48729888589486214
aF-0.49744191424866363
aF0.5048303018515005
abababag1
(g2
g3
Ntp439
Rp440
(lp441
g1
(g7
g3
Ntp442
Rp443
(lp444
I0
ag1
(g11
g3
Ntp445
Rp446
(lp447
I1607448801
aI507342100
abaS'world'
p448
abag1
(g16
g3
Ntp449
Rp450
(lp451
g1
(g20
g3
Ntp452
Rp453
(lp454
F-0.3595454111436244
aF-0.21174967239886106
aF0.3291537098605173
abag1
(g24
g3
Ntp455
Rp456
(lp457
F0.5090573834376425
aF0.4853678398311179
aF-0.49856275331644856
aF0.5066693413172123
abababag1
(g2
g3
Ntp458
Rp459
(lp460
g1
(g7
g3
Ntp461
Rp462
(lp463
I0
ag1
(g11
g3
Ntp464
Rp465
(lp466
I1607448801
aI507342100
abag448
abag1
(g16
g3
Ntp467
Rp468
(lp469
g1
(g20
g3
Ntp470
Rp471
(lp472
F-0.3595454111436244
aF-0.21174967239886106
aF0.3261537098605173
abag1
(g24
g3
Ntp473
Rp474
(lp475
F0.5090573834376425
aF0.4853678398311179
aF-0.49856275331644856
aF0.5066693413172123
abababag1
(g2
g3
Ntp476
Rp477
(lp478
g1
(g7
g3
Ntp479
Rp480
(lp481
I0
ag1
(g11
g3
Ntp482
Rp483
(lp484
I1607448803
aI163611888
abaS'world'
p485
abag1
(g16
g3
Ntp486
Rp487
(lp488
g1
(g20
g3
Ntp489
Rp490
(lp491
F-0.3588943138402983
aF-0.20888909739988884
aF0.32843218762417353
abag1
(g24
g3
Ntp492
Rp493
(lp494
F0.5097046300231501
aF0.4844810410706546
aF-0.5018181539454355
aF0.5036445684675395
abababag1
(g2
g3
Ntp495
Rp496
(lp497
g1
(g7
g3
Ntp498
Rp499
(lp500
I0
ag1
(g11
g3
Ntp501
Rp502
(lp503
I1607448803
aI163611888
abag485
abag1
(g16
g3
Ntp504
Rp505
(lp506
g1
(g20
g3
Ntp507
Rp508
(lp509
F-0.3588943138402983
aF-0.20888909739988884
aF0.32543218762417353
abag1
(g24
g3
Ntp510
Rp511
(lp512
F0.5097046300231501
aF0.4844810410706546
aF-0.5018181539454355
aF0.5036445684675395
abababag1
(g2
g3
Ntp513
Rp514
(lp515
g1
(g7
g3
Ntp516
Rp517
(lp518
I0
ag1
(g11
g3
Ntp519
Rp520
(lp521
I1607448803
aI579401969
abaS'world'
p522
abag1
(g16
g3
Ntp523
Rp524
(lp525
g1
(g20
g3
Ntp526
Rp527
(lp528
F-0.3583190531213142
aF-0.20593453631400244
aF0.3285306953366065
abag1
(g24
g3
Ntp529
Rp530
(lp531
F0.5080786883363337
aF0.48597567174009104
aF-0.5012453707048996
aF0.5044172591041135
abababag1
(g2
g3
Ntp532
Rp533
(lp534
g1
(g7
g3
Ntp535
Rp536
(lp537
I0
ag1
(g11
g3
Ntp538
Rp539
(lp540
I1607448803
aI579401969
abag522
abag1
(g16
g3
Ntp541
Rp542
(lp543
g1
(g20
g3
Ntp544
Rp545
(lp546
F-0.3583190531213142
aF-0.20593453631400244
aF0.3255306953366065
abag1
(g24
g3
Ntp547
Rp548
(lp549
F0.5080786883363337
aF0.48597567174009104
aF-0.5012453707048996
aF0.5044172591041135
abababag1
(g2
g3
Ntp550
Rp551
(lp552
g1
(g7
g3
Ntp553
Rp554
(lp555
I0
ag1
(g11
g3
Ntp556
Rp557
(lp558
I1607448803
aI763309001
abaS'world'
p559
abag1
(g16
g3
Ntp560
Rp561
(lp562
g1
(g20
g3
Ntp563
Rp564
(lp565
F-0.35776356392538117
aF-0.20295218048540145
aF0.32864260051676936
abag1
(g24
g3
Ntp566
Rp567
(lp568
F0.49939162518133196
aF0.4943247522467622
aF-0.4942092106431237
aF0.5118674634418819
abababag1
(g2
g3
Ntp569
Rp570
(lp571
g1
(g7
g3
Ntp572
Rp573
(lp574
I0
ag1
(g11
g3
Ntp575
Rp576
(lp577
I1607448803
aI763309001
abag559
abag1
(g16
g3
Ntp578
Rp579
(lp580
g1
(g20
g3
Ntp581
Rp582
(lp583
F-0.35776356392538117
aF-0.20295218048540145
aF0.32564260051676935
abag1
(g24
g3
Ntp584
Rp585
(lp586
F0.49939162518133196
aF0.4943247522467622
aF-0.4942092106431237
aF0.5118674634418819
abababag1
(g2
g3
Ntp587
Rp588
(lp589
g1
(g7
g3
Ntp590
Rp591
(lp592
I0
ag1
(g11
g3
Ntp593
Rp594
(lp595
I1607448803
aI971245050
abaS'world'
p596
abag1
(g16
g3
Ntp597
Rp598
(lp599
g1
(g20
g3
Ntp600
Rp601
(lp602
F-0.3572140459708222
aF-0.1999595917931081
aF0.3287719036796577
abag1
(g24
g3
Ntp603
Rp604
(lp605
F0.500731972758975
aF0.49292615987096206
aF-0.49700881119371965
aF0.5091890945096702
abababag1
(g2
g3
Ntp606
Rp607
(lp608
g1
(g7
g3
Ntp609
Rp610
(lp611
I0
ag1
(g11
g3
Ntp612
Rp613
(lp614
I1607448803
aI971245050
abag596
abag1
(g16
g3
Ntp615
Rp616
(lp617
g1
(g20
g3
Ntp618
Rp619
(lp620
F-0.3572140459708222
aF-0.1999595917931081
aF0.3257719036796577
abag1
(g24
g3
Ntp621
Rp622
(lp623
F0.500731972758975
aF0.49292615987096206
aF-0.49700881119371965
aF0.5091890945096702
abababag1
(g2
g3
Ntp624
Rp625
(lp626
g1
(g7
g3
Ntp627
Rp628
(lp629
I0
ag1
(g11
g3
Ntp630
Rp631
(lp632
I1607448804
aI243217945
abaS'world'
p633
abag1
(g16
g3
Ntp634
Rp635
(lp636
g1
(g20
g3
Ntp637
Rp638
(lp639
F-0.35670055842560644
aF-0.19697068803451673
aF0.32879161170766524
abag1
(g24
g3
Ntp640
Rp641
(lp642
F0.5019887875307808
aF0.491562920546243
aF-0.49966447900161615
aF0.5066641498680056
abababag1
(g2
g3
Ntp643
Rp644
(lp645
g1
(g7
g3
Ntp646
Rp647
(lp648
I0
ag1
(g11
g3
Ntp649
Rp650
(lp651
I1607448804
aI243217945
abag633
abag1
(g16
g3
Ntp652
Rp653
(lp654
g1
(g20
g3
Ntp655
Rp656
(lp657
F-0.35670055842560644
aF-0.19697068803451673
aF0.32579161170766524
abag1
(g24
g3
Ntp658
Rp659
(lp660
F0.5019887875307808
aF0.491562920546243
aF-0.49966447900161615
aF0.5066641498680056
abababag1
(g2
g3
Ntp661
Rp662
(lp663
g1
(g7
g3
Ntp664
Rp665
(lp666
I0
ag1
(g11
g3
Ntp667
Rp668
(lp669
I1607448804
aI491959095
abaS'world'
p670
abag1
(g16
g3
Ntp671
Rp672
(lp673
g1
(g20
g3
Ntp674
Rp675
(lp676
F-0.3562184467954904
aF-0.1940045437984486
aF0.32875703693354774
abag1
(g24
g3
Ntp677
Rp678
(lp679
F0.5027053609366471
aF0.4907451483678807
aF-0.5017411872438207
aF0.5046903015336278
abababag1
(g2
g3
Ntp680
Rp681
(lp682
g1
(g7
g3
Ntp683
Rp684
(lp685
I0
ag1
(g11
g3
Ntp686
Rp687
(lp688
I1607448804
aI491959095
abag670
abag1
(g16
g3
Ntp689
Rp690
(lp691
g1
(g20
g3
Ntp692
Rp693
(lp694
F-0.3562184467954904
aF-0.1940045437984486
aF0.32575703693354774
abag1
(g24
g3
Ntp695
Rp696
(lp697
F0.5027053609366471
aF0.4907451483678807
aF-0.5017411872438207
aF0.5046903015336278
abababag1
(g2
g3
Ntp698
Rp699
(lp700
g1
(g7
g3
Ntp701
Rp702
(lp703
I0
ag1
(g11
g3
Ntp704
Rp705
(lp706
I1607448804
aI731467008
abaS'world'
p707
abag1
(g16
g3
Ntp708
Rp709
(lp710
g1
(g20
g3
Ntp711
Rp712
(lp713
F-0.35561476489707167
aF-0.19097457646790048
aF0.32882802637504344
abag1
(g24
g3
Ntp714
Rp715
(lp716
F0.5033870598293158
aF0.4899121671054112
aF-0.5037881243969646
aF0.5027773485699862
abababag1
(g2
g3
Ntp717
Rp718
(lp719
g1
(g7
g3
Ntp720
Rp721
(lp722
I0
ag1
(g11
g3
Ntp723
Rp724
(lp725
I1607448804
aI731467008
abag707
abag1
(g16
g3
Ntp726
Rp727
(lp728
g1
(g20
g3
Ntp729
Rp730
(lp731
F-0.35561476489707167
aF-0.19097457646790048
aF0.32582802637504343
abag1
(g24
g3
Ntp732
Rp733
(lp734
F0.5033870598293158
aF0.4899121671054112
aF-0.5037881243969646
aF0.5027773485699862
abababag1
(g2
g3
Ntp735
Rp736
(lp737
g1
(g7
g3
Ntp738
Rp739
(lp740
I0
ag1
(g11
g3
Ntp741
Rp742
(lp743
I1607448804
aI971220970
abaS'world'
p744
abag1
(g16
g3
Ntp745
Rp746
(lp747
g1
(g20
g3
Ntp748
Rp749
(lp750
F-0.35497930899169433
aF-0.18799236209051248
aF0.3288245092738444
abag1
(g24
g3
Ntp751
Rp752
(lp753
F0.5039343320168405
aF0.48698088963822445
aF-0.5079518213566477
aF0.5008839679230799
abababag1
(g2
g3
Ntp754
Rp755
(lp756
g1
(g7
g3
Ntp757
Rp758
(lp759
I0
ag1
(g11
g3
Ntp760
Rp761
(lp762
I1607448804
aI971220970
abag744
abag1
(g16
g3
Ntp763
Rp764
(lp765
g1
(g20
g3
Ntp766
Rp767
(lp768
F-0.35497930899169433
aF-0.18799236209051248
aF0.3258245092738444
abag1
(g24
g3
Ntp769
Rp770
(lp771
F0.5039343320168405
aF0.48698088963822445
aF-0.5079518213566477
aF0.5008839679230799
abababag1
(g2
g3
Ntp772
Rp773
(lp774
g1
(g7
g3
Ntp775
Rp776
(lp777
I0
ag1
(g11
g3
Ntp778
Rp779
(lp780
I1607448805
aI162921905
abaS'world'
p781
abag1
(g16
g3
Ntp782
Rp783
(lp784
g1
(g20
g3
Ntp785
Rp786
(lp787
F-0.3544061402667973
aF-0.18500314791934447
aF0.32876565684925657
abag1
(g24
g3
Ntp788
Rp789
(lp790
F0.5052173695376266
aF0.48516275170949535
aF-0.5109331433226668
aF0.49831700445155525
abababag1
(g2
g3
Ntp791
Rp792
(lp793
g1
(g7
g3
Ntp794
Rp795
(lp796
I0
ag1
(g11
g3
Ntp797
Rp798
(lp799
I1607448805
aI162921905
abag781
abag1
(g16
g3
Ntp800
Rp801
(lp802
g1
(g20
g3
Ntp803
Rp804
(lp805
F-0.3544061402667973
aF-0.18500314791934447
aF0.32576565684925657
abag1
(g24
g3
Ntp806
Rp807
(lp808
F0.5052173695376266
aF0.48516275170949535
aF-0.5109331433226668
aF0.49831700445155525
abababag1
(g2
g3
Ntp809
Rp810
(lp811
g1
(g7
g3
Ntp812
Rp813
(lp814
I0
ag1
(g11
g3
Ntp815
Rp816
(lp817
I1607448805
aI355062961
abaS'world'
p818
abag1
(g16
g3
Ntp819
Rp820
(lp821
g1
(g20
g3
Ntp822
Rp823
(lp824
F-0.3538398326543214
aF-0.18203230714147034
aF0.3287855597952708
abag1
(g24
g3
Ntp825
Rp826
(lp827
F0.5065811079600271
aF0.4836708055797746
aF-0.5137270171570298
aF0.49550245683623456
abababag1
(g2
g3
Ntp828
Rp829
(lp830
g1
(g7
g3
Ntp831
Rp832
(lp833
I0
ag1
(g11
g3
Ntp834
Rp835
(lp836
I1607448805
aI355062961
abag818
abag1
(g16
g3
Ntp837
Rp838
(lp839
g1
(g20
g3
Ntp840
Rp841
(lp842
F-0.3538398326543214
aF-0.18203230714147034
aF0.3257855597952708
abag1
(g24
g3
Ntp843
Rp844
(lp845
F0.5065811079600271
aF0.4836708055797746
aF-0.5137270171570298
aF0.49550245683623456
abababag1
(g2
g3
Ntp846
Rp847
(lp848
g1
(g7
g3
Ntp849
Rp850
(lp851
I0
ag1
(g11
g3
Ntp852
Rp853
(lp854
I1607448805
aI539186954
abaS'world'
p855
abag1
(g16
g3
Ntp856
Rp857
(lp858
g1
(g20
g3
Ntp859
Rp860
(lp861
F-0.35315197192681236
aF-0.17910249831123323
aF0.3288466031049479
abag1
(g24
g3
Ntp862
Rp863
(lp864
F0.5080589846120546
aF0.4820906321922588
aF-0.5163329475657112
aF0.4928133295331422
abababag1
(g2
g3
Ntp865
Rp866
(lp867
g1
(g7
g3
Ntp868
Rp869
(lp870
I0
ag1
(g11
g3
Ntp871
Rp872
(lp873
I1607448805
aI539186954
abag855
abag1
(g16
g3
Ntp874
Rp875
(lp876
g1
(g20
g3
Ntp877
Rp878
(lp879
F-0.35315197192681236
aF-0.17910249831123323
aF0.3258466031049479
abag1
(g24
g3
Ntp880
Rp881
(lp882
F0.5080589846120546
aF0.4820906321922588
aF-0.5163329475657112
aF0.4928133295331422
abababag1
(g2
g3
Ntp883
Rp884
(lp885
g1
(g7
g3
Ntp886
Rp887
(lp888
I0
ag1
(g11
g3
Ntp889
Rp890
(lp891
I1607448805
aI707050085
abaS'world'
p892
abag1
(g16
g3
Ntp893
Rp894
(lp895
g1
(g20
g3
Ntp896
Rp897
(lp898
F-0.35238468152863567
aF-0.17617981859149237
aF0.32888284770376397
abag1
(g24
g3
Ntp899
Rp900
(lp901
F0.5097056038811963
aF0.480294382052821
aF-0.5188612935119339
aF0.49020451041960755
abababag1
(g2
g3
Ntp902
Rp903
(lp904
g1
(g7
g3
Ntp905
Rp906
(lp907
I0
ag1
(g11
g3
Ntp908
Rp909
(lp910
I1607448805
aI707050085
abag892
abag1
(g16
g3
Ntp911
Rp912
(lp913
g1
(g20
g3
Ntp914
Rp915
(lp916
F-0.35238468152863567
aF-0.17617981859149237
aF0.32588284770376397
abag1
(g24
g3
Ntp917
Rp918
(lp919
F0.5097056038811963
aF0.480294382052821
aF-0.5188612935119339
aF0.49020451041960755
abababag1
(g2
g3
Ntp920
Rp921
(lp922
g1
(g7
g3
Ntp923
Rp924
(lp925
I0
ag1
(g11
g3
Ntp926
Rp927
(lp928
I1607448805
aI947164058
abaS'world'
p929
abag1
(g16
g3
Ntp930
Rp931
(lp932
g1
(g20
g3
Ntp933
Rp934
(lp935
F-0.3516560164700957
aF-0.17320119862209413
aF0.32885745487071544
abag1
(g24
g3
Ntp936
Rp937
(lp938
F0.5119029520447084
aF0.4779061191606792
aF-0.5221162464320335
aF0.48678099199580105
abababag1
(g2
g3
Ntp939
Rp940
(lp941
g1
(g7
g3
Ntp942
Rp943
(lp944
I0
ag1
(g11
g3
Ntp945
Rp946
(lp947
I1607448805
aI947164058
abag929
abag1
(g16
g3
Ntp948
Rp949
(lp950
g1
(g20
g3
Ntp951
Rp952
(lp953
F-0.3516560164700957
aF-0.17320119862209413
aF0.32585745487071544
abag1
(g24
g3
Ntp954
Rp955
(lp956
F0.5119029520447084
aF0.4779061191606792
aF-0.5221162464320335
aF0.48678099199580105
abababag1
(g2
g3
Ntp957
Rp958
(lp959
g1
(g7
g3
Ntp960
Rp961
(lp962
I0
ag1
(g11
g3
Ntp963
Rp964
(lp965
I1607448806
aI163394927
abaS'world'
p966
abag1
(g16
g3
Ntp967
Rp968
(lp969
g1
(g20
g3
Ntp970
Rp971
(lp972
F-0.35084604816602005
aF-0.17027187872352287
aF0.32886477689265853
abag1
(g24
g3
Ntp973
Rp974
(lp975
F0.5217168850888402
aF0.4671241284711674
aF-0.5325952878064658
aF0.47534071971544634
abababag1
(g2
g3
Ntp976
Rp977
(lp978
g1
(g7
g3
Ntp979
Rp980
(lp981
I0
ag1
(g11
g3
Ntp982
Rp983
(lp984
I1607448806
aI163394927
abag966
abag1
(g16
g3
Ntp985
Rp986
(lp987
g1
(g20
g3
Ntp988
Rp989
(lp990
F-0.35084604816602005
aF-0.17027187872352287
aF0.3258647768926585
abag1
(g24
g3
Ntp991
Rp992
(lp993
F0.5217168850888402
aF0.4671241284711674
aF-0.5325952878064658
aF0.47534071971544634
abababag1
(g2
g3
Ntp994
Rp995
(lp996
g1
(g7
g3
Ntp997
Rp998
(lp999
I0
ag1
(g11
g3
Ntp1000
Rp1001
(lp1002
I1607448806
aI531366109
abaS'world'
p1003
abag1
(g16
g3
Ntp1004
Rp1005
(lp1006
g1
(g20
g3
Ntp1007
Rp1008
(lp1009
F-0.3500263686756326
aF-0.1673008240685375
aF0.3287838715483165
abag1
(g24
g3
Ntp1010
Rp1011
(lp1012
F0.5404845609951149
aF0.4451912568206533
aF-0.5517927643194026
aF0.4529966108274071
abababag1
(g2
g3
Ntp1013
Rp1014
(lp1015
g1
(g7
g3
Ntp1016
Rp1017
(lp1018
I0
ag1
(g11
g3
Ntp1019
Rp1020
(lp1021
I1607448806
aI531366109
abag1003
abag1
(g16
g3
Ntp1022
Rp1023
(lp1024
g1
(g20
g3
Ntp1025
Rp1026
(lp1027
F-0.3500263686756326
aF-0.1673008240685375
aF0.3257838715483165
abag1
(g24
g3
Ntp1028
Rp1029
(lp1030
F0.5404845609951149
aF0.4451912568206533
aF-0.5517927643194026
aF0.4529966108274071
abababag1
(g2
g3
Ntp1031
Rp1032
(lp1033
g1
(g7
g3
Ntp1034
Rp1035
(lp1036
I0
ag1
(g11
g3
Ntp1037
Rp1038
(lp1039
I1607448806
aI763402938
abaS'world'
p1040
abag1
(g16
g3
Ntp1041
Rp1042
(lp1043
g1
(g20
g3
Ntp1044
Rp1045
(lp1046
F-0.34904130291647206
aF-0.16433871316779
aF0.32880739022329697
abag1
(g24
g3
Ntp1047
Rp1048
(lp1049
F0.543597795492057
aF0.4413787352567347
aF-0.5552976425789894
aF0.4486989825546278
abababag1
(g2
g3
Ntp1050
Rp1051
(lp1052
g1
(g7
g3
Ntp1053
Rp1054
(lp1055
I0
ag1
(g11
g3
Ntp1056
Rp1057
(lp1058
I1607448806
aI763402938
abag1040
abag1
(g16
g3
Ntp1059
Rp1060
(lp1061
g1
(g20
g3
Ntp1062
Rp1063
(lp1064
F-0.34904130291647206
aF-0.16433871316779
aF0.32580739022329697
abag1
(g24
g3
Ntp1065
Rp1066
(lp1067
F0.543597795492057
aF0.4413787352567347
aF-0.5552976425789894
aF0.4486989825546278
abababag1
(g2
g3
Ntp1068
Rp1069
(lp1070
g1
(g7
g3
Ntp1071
Rp1072
(lp1073
I0
ag1
(g11
g3
Ntp1074
Rp1075
(lp1076
I1607448807
aI74959993
abaS'world'
p1077
abag1
(g16
g3
Ntp1078
Rp1079
(lp1080
g1
(g20
g3
Ntp1081
Rp1082
(lp1083
F-0.3480138057473741
aF-0.16146926789594712
aF0.3287820047367366
abag1
(g24
g3
Ntp1084
Rp1085
(lp1086
F0.5636812258731838
aF0.4154119138812989
aF-0.5752024708064865
aF0.422893053834766
abababag1
(g2
g3
Ntp1087
Rp1088
(lp1089
g1
(g7
g3
Ntp1090
Rp1091
(lp1092
I0
ag1
(g11
g3
Ntp1093
Rp1094
(lp1095
I1607448807
aI74959993
abag1077
abag1
(g16
g3
Ntp1096
Rp1097
(lp1098
g1
(g20
g3
Ntp1099
Rp1100
(lp1101
F-0.3480138057473741
aF-0.16146926789594712
aF0.3257820047367366
abag1
(g24
g3
Ntp1102
Rp1103
(lp1104
F0.5636812258731838
aF0.4154119138812989
aF-0.5752024708064865
aF0.422893053834766
abababag1
(g2
g3
Ntp1105
Rp1106
(lp1107
g1
(g7
g3
Ntp1108
Rp1109
(lp1110
I0
ag1
(g11
g3
Ntp1111
Rp1112
(lp1113
I1607448807
aI459106922
abaS'world'
p1114
abag1
(g16
g3
Ntp1115
Rp1116
(lp1117
g1
(g20
g3
Ntp1118
Rp1119
(lp1120
F-0.3469480125916136
aF-0.15864141272281107
aF0.32880368627493506
abag1
(g24
g3
Ntp1121
Rp1122
(lp1123
F0.5809609578777044
aF0.39126880208216525
aF-0.591960597817105
aF0.39871762009099043
abababag1
(g2
g3
Ntp1124
Rp1125
(lp1126
g1
(g7
g3
Ntp1127
Rp1128
(lp1129
I0
ag1
(g11
g3
Ntp1130
Rp1131
(lp1132
I1607448807
aI459106922
abag1114
abag1
(g16
g3
Ntp1133
Rp1134
(lp1135
g1
(g20
g3
Ntp1136
Rp1137
(lp1138
F-0.3469480125916136
aF-0.15864141272281107
aF0.32580368627493506
abag1
(g24
g3
Ntp1139
Rp1140
(lp1141
F0.5809609578777044
aF0.39126880208216525
aF-0.591960597817105
aF0.39871762009099043
abababag1
(g2
g3
Ntp1142
Rp1143
(lp1144
g1
(g7
g3
Ntp1145
Rp1146
(lp1147
I0
ag1
(g11
g3
Ntp1148
Rp1149
(lp1150
I1607448807
aI707215070
abaS'world'
p1151
abag1
(g16
g3
Ntp1152
Rp1153
(lp1154
g1
(g20
g3
Ntp1155
Rp1156
(lp1157
F-0.34584407768469727
aF-0.15584293369442306
aF0.32876275096443897
abag1
(g24
g3
Ntp1158
Rp1159
(lp1160
F0.5873083902705365
aF0.3826838533360844
aF-0.5974516183955159
aF0.38945280431684776
abababag1
(g2
g3
Ntp1161
Rp1162
(lp1163
g1
(g7
g3
Ntp1164
Rp1165
(lp1166
I0
ag1
(g11
g3
Ntp1167
Rp1168
(lp1169
I1607448807
aI707215070
abag1151
abag1
(g16
g3
Ntp1170
Rp1171
(lp1172
g1
(g20
g3
Ntp1173
Rp1174
(lp1175
F-0.34584407768469727
aF-0.15584293369442306
aF0.32576275096443896
abag1
(g24
g3
Ntp1176
Rp1177
(lp1178
F0.5873083902705365
aF0.3826838533360844
aF-0.5974516183955159
aF0.38945280431684776
abababag1
(g2
g3
Ntp1179
Rp1180
(lp1181
g1
(g7
g3
Ntp1182
Rp1183
(lp1184
I0
ag1
(g11
g3
Ntp1185
Rp1186
(lp1187
I1607448807
aI858757972
abaS'world'
p1188
abag1
(g16
g3
Ntp1189
Rp1190
(lp1191
g1
(g20
g3
Ntp1192
Rp1193
(lp1194
F-0.3446442715898814
aF-0.15300980771100584
aF0.32872427416663463
abag1
(g24
g3
Ntp1195
Rp1196
(lp1197
F0.5893775225467148
aF0.3794312084877798
aF-0.5994841079781525
aF0.38637403927261815
abababag1
(g2
g3
Ntp1198
Rp1199
(lp1200
g1
(g7
g3
Ntp1201
Rp1202
(lp1203
I0
ag1
(g11
g3
Ntp1204
Rp1205
(lp1206
I1607448807
aI858757972
abag1188
abag1
(g16
g3
Ntp1207
Rp1208
(lp1209
g1
(g20
g3
Ntp1210
Rp1211
(lp1212
F-0.3446442715898814
aF-0.15300980771100584
aF0.32572427416663463
abag1
(g24
g3
Ntp1213
Rp1214
(lp1215
F0.5893775225467148
aF0.3794312084877798
aF-0.5994841079781525
aF0.38637403927261815
abababag1
(g2
g3
Ntp1216
Rp1217
(lp1218
g1
(g7
g3
Ntp1219
Rp1220
(lp1221
I0
ag1
(g11
g3
Ntp1222
Rp1223
(lp1224
I1607448808
aI242827892
abaS'world'
p1225
abag1
(g16
g3
Ntp1226
Rp1227
(lp1228
g1
(g20
g3
Ntp1229
Rp1230
(lp1231
F-0.34334499990240785
aF-0.15024246194273075
aF0.32854021367730035
abag1
(g24
g3
Ntp1232
Rp1233
(lp1234
F0.6101234588948522
aF0.34524444247769065
aF-0.6195944406194466
aF0.3530699208342815
abababag1
(g2
g3
Ntp1235
Rp1236
(lp1237
g1
(g7
g3
Ntp1238
Rp1239
(lp1240
I0
ag1
(g11
g3
Ntp1241
Rp1242
(lp1243
I1607448808
aI242827892
abag1225
abag1
(g16
g3
Ntp1244
Rp1245
(lp1246
g1
(g20
g3
Ntp1247
Rp1248
(lp1249
F-0.34334499990240785
aF-0.15024246194273075
aF0.32554021367730035
abag1
(g24
g3
Ntp1250
Rp1251
(lp1252
F0.6101234588948522
aF0.34524444247769065
aF-0.6195944406194466
aF0.3530699208342815
abababag1
(g2
g3
Ntp1253
Rp1254
(lp1255
g1
(g7
g3
Ntp1256
Rp1257
(lp1258
I0
ag1
(g11
g3
Ntp1259
Rp1260
(lp1261
I1607448808
aI587059974
abaS'world'
p1262
abag1
(g16
g3
Ntp1263
Rp1264
(lp1265
g1
(g20
g3
Ntp1266
Rp1267
(lp1268
F-0.3420218098498559
aF-0.14754007847406314
aF0.3284438207751938
abag1
(g24
g3
Ntp1269
Rp1270
(lp1271
F0.6232354893717548
aF0.32159914254765054
aF-0.6317838825987306
aF0.3301524526467114
abababag1
(g2
g3
Ntp1272
Rp1273
(lp1274
g1
(g7
g3
Ntp1275
Rp1276
(lp1277
I0
ag1
(g11
g3
Ntp1278
Rp1279
(lp1280
I1607448808
aI587059974
abag1262
abag1
(g16
g3
Ntp1281
Rp1282
(lp1283
g1
(g20
g3
Ntp1284
Rp1285
(lp1286
F-0.3420218098498559
aF-0.14754007847406314
aF0.3254438207751938
abag1
(g24
g3
Ntp1287
Rp1288
(lp1289
F0.6232354893717548
aF0.32159914254765054
aF-0.6317838825987306
aF0.3301524526467114
abababag1
(g2
g3
Ntp1290
Rp1291
(lp1292
g1
(g7
g3
Ntp1293
Rp1294
(lp1295
I0
ag1
(g11
g3
Ntp1296
Rp1297
(lp1298
I1607448808
aI867275953
abaS'world'
p1299
abag1
(g16
g3
Ntp1300
Rp1301
(lp1302
g1
(g20
g3
Ntp1303
Rp1304
(lp1305
F-0.3405925964892642
aF-0.14487831167565343
aF0.3284158620177737
abag1
(g24
g3
Ntp1306
Rp1307
(lp1308
F0.628872704190217
aF0.31134616251673974
aF-0.6361631884260078
aF0.3207476994496445
abababag1
(g2
g3
Ntp1309
Rp1310
(lp1311
g1
(g7
g3
Ntp1312
Rp1313
(lp1314
I0
ag1
(g11
g3
Ntp1315
Rp1316
(lp1317
I1607448808
aI867275953
abag1299
abag1
(g16
g3
Ntp1318
Rp1319
(lp1320
g1
(g20
g3
Ntp1321
Rp1322
(lp1323
F-0.3405925964892642
aF-0.14487831167565343
aF0.32541586201777367
abag1
(g24
g3
Ntp1324
Rp1325
(lp1326
F0.628872704190217
aF0.31134616251673974
aF-0.6361631884260078
aF0.3207476994496445
abababag1
(g2
g3
Ntp1327
Rp1328
(lp1329
g1
(g7
g3
Ntp1330
Rp1331
(lp1332
I0
ag1
(g11
g3
Ntp1333
Rp1334
(lp1335
I1607448809
aI138988971
abaS'world'
p1336
abag1
(g16
g3
Ntp1337
Rp1338
(lp1339
g1
(g20
g3
Ntp1340
Rp1341
(lp1342
F-0.3389996649903034
aF-0.14229842717277688
aF0.3285262122102537
abag1
(g24
g3
Ntp1343
Rp1344
(lp1345
F0.6323440588864149
aF0.30530724502414147
aF-0.6381359887904139
aF0.31577038673267654
abababag1
(g2
g3
Ntp1346
Rp1347
(lp1348
g1
(g7
g3
Ntp1349
Rp1350
(lp1351
I0
ag1
(g11
g3
Ntp1352
Rp1353
(lp1354
I1607448809
aI138988971
abag1336
abag1
(g16
g3
Ntp1355
Rp1356
(lp1357
g1
(g20
g3
Ntp1358
Rp1359
(lp1360
F-0.3389996649903034
aF-0.14229842717277688
aF0.3255262122102537
abag1
(g24
g3
Ntp1361
Rp1362
(lp1363
F0.6323440588864149
aF0.30530724502414147
aF-0.6381359887904139
aF0.31577038673267654
abababag1
(g2
g3
Ntp1364
Rp1365
(lp1366
g1
(g7
g3
Ntp1367
Rp1368
(lp1369
I0
ag1
(g11
g3
Ntp1370
Rp1371
(lp1372
I1607448809
aI715214014
abaS'world'
p1373
abag1
(g16
g3
Ntp1374
Rp1375
(lp1376
g1
(g20
g3
Ntp1377
Rp1378
(lp1379
F-0.33732763890650025
aF-0.13979027798410024
aF0.3285602561081229
abag1
(g24
g3
Ntp1380
Rp1381
(lp1382
F0.6498851812081686
aF0.2688929217427545
aF-0.6530600567017171
aF0.28081739658258553
abababag1
(g2
g3
Ntp1383
Rp1384
(lp1385
g1
(g7
g3
Ntp1386
Rp1387
(lp1388
I0
ag1
(g11
g3
Ntp1389
Rp1390
(lp1391
I1607448809
aI715214014
abag1373
abag1
(g16
g3
Ntp1392
Rp1393
(lp1394
g1
(g20
g3
Ntp1395
Rp1396
(lp1397
F-0.33732763890650025
aF-0.13979027798410024
aF0.3255602561081229
abag1
(g24
g3
Ntp1398
Rp1399
(lp1400
F0.6498851812081686
aF0.2688929217427545
aF-0.6530600567017171
aF0.28081739658258553
abababag1
(g2
g3
Ntp1401
Rp1402
(lp1403
g1
(g7
g3
Ntp1404
Rp1405
(lp1406
I0
ag1
(g11
g3
Ntp1407
Rp1408
(lp1409
I1607448809
aI931178092
abaS'world'
p1410
abag1
(g16
g3
Ntp1411
Rp1412
(lp1413
g1
(g20
g3
Ntp1414
Rp1415
(lp1416
F-0.33562951950464154
aF-0.13728205339528027
aF0.32860048983855933
abag1
(g24
g3
Ntp1417
Rp1418
(lp1419
F0.6520865770109975
aF0.2654630476614893
aF-0.6531926917104142
aF0.27866067879135453
abababag1
(g2
g3
Ntp1420
Rp1421
(lp1422
g1
(g7
g3
Ntp1423
Rp1424
(lp1425
I0
ag1
(g11
g3
Ntp1426
Rp1427
(lp1428
I1607448809
aI931178092
abag1410
abag1
(g16
g3
Ntp1429
Rp1430
(lp1431
g1
(g20
g3
Ntp1432
Rp1433
(lp1434
F-0.33562951950464154
aF-0.13728205339528027
aF0.3256004898385593
abag1
(g24
g3
Ntp1435
Rp1436
(lp1437
F0.6520865770109975
aF0.2654630476614893
aF-0.6531926917104142
aF0.27866067879135453
abababag1
(g2
g3
Ntp1438
Rp1439
(lp1440
g1
(g7
g3
Ntp1441
Rp1442
(lp1443
I0
ag1
(g11
g3
Ntp1444
Rp1445
(lp1446
I1607448810
aI346798896
abaS'world'
p1447
abag1
(g16
g3
Ntp1448
Rp1449
(lp1450
g1
(g20
g3
Ntp1451
Rp1452
(lp1453
F-0.33362587215607464
aF-0.1350473835747715
aF0.32865494093408787
abag1
(g24
g3
Ntp1454
Rp1455
(lp1456
F0.6668770338797305
aF0.23036410680649633
aF-0.6650743422456671
aF0.24471109346637993
abababag1
(g2
g3
Ntp1457
Rp1458
(lp1459
g1
(g7
g3
Ntp1460
Rp1461
(lp1462
I0
ag1
(g11
g3
Ntp1463
Rp1464
(lp1465
I1607448810
aI346798896
abag1447
abag1
(g16
g3
Ntp1466
Rp1467
(lp1468
g1
(g20
g3
Ntp1469
Rp1470
(lp1471
F-0.33362587215607464
aF-0.1350473835747715
aF0.32565494093408787
abag1
(g24
g3
Ntp1472
Rp1473
(lp1474
F0.6668770338797305
aF0.23036410680649633
aF-0.6650743422456671
aF0.24471109346637993
abababag1
(g2
g3
Ntp1475
Rp1476
(lp1477
g1
(g7
g3
Ntp1478
Rp1479
(lp1480
I0
ag1
(g11
g3
Ntp1481
Rp1482
(lp1483
I1607448810
aI530994892
abaS'world'
p1484
abag1
(g16
g3
Ntp1485
Rp1486
(lp1487
g1
(g20
g3
Ntp1488
Rp1489
(lp1490
F-0.3312043424181608
aF-0.13325012135773387
aF0.32868141449419663
abag1
(g24
g3
Ntp1491
Rp1492
(lp1493
F0.6707470621787611
aF0.2206345970940268
aF-0.6679503271559271
aF0.2350768248807351
abababag1
(g2
g3
Ntp1494
Rp1495
(lp1496
g1
(g7
g3
Ntp1497
Rp1498
(lp1499
I0
ag1
(g11
g3
Ntp1500
Rp1501
(lp1502
I1607448810
aI530994892
abag1484
abag1
(g16
g3
Ntp1503
Rp1504
(lp1505
g1
(g20
g3
Ntp1506
Rp1507
(lp1508
F-0.3312043424181608
aF-0.13325012135773387
aF0.32568141449419663
abag1
(g24
g3
Ntp1509
Rp1510
(lp1511
F0.6707470621787611
aF0.2206345970940268
aF-0.6679503271559271
aF0.2350768248807351
abababag1
(g2
g3
Ntp1512
Rp1513
(lp1514
g1
(g7
g3
Ntp1515
Rp1516
(lp1517
I0
ag1
(g11
g3
Ntp1518
Rp1519
(lp1520
I1607448810
aI691133022
abaS'world'
p1521
abag1
(g16
g3
Ntp1522
Rp1523
(lp1524
g1
(g20
g3
Ntp1525
Rp1526
(lp1527
F-0.3288723136930967
aF-0.1312332905969654
aF0.32865128849674097
abag1
(g24
g3
Ntp1528
Rp1529
(lp1530
F0.6719868087433394
aF0.21771598411977275
aF-0.6685232119328586
aF0.2326159801919814
abababag1
(g2
g3
Ntp1531
Rp1532
(lp1533
g1
(g7
g3
Ntp1534
Rp1535
(lp1536
I0
ag1
(g11
g3
Ntp1537
Rp1538
(lp1539
I1607448810
aI691133022
abag1521
abag1
(g16
g3
Ntp1540
Rp1541
(lp1542
g1
(g20
g3
Ntp1543
Rp1544
(lp1545
F-0.3288723136930967
aF-0.1312332905969654
aF0.32565128849674096
abag1
(g24
g3
Ntp1546
Rp1547
(lp1548
F0.6719868087433394
aF0.21771598411977275
aF-0.6685232119328586
aF0.2326159801919814
abababag1
(g2
g3
Ntp1549
Rp1550
(lp1551
g1
(g7
g3
Ntp1552
Rp1553
(lp1554
I0
ag1
(g11
g3
Ntp1555
Rp1556
(lp1557
I1607448811
aI283183097
abaS'world'
p1558
abag1
(g16
g3
Ntp1559
Rp1560
(lp1561
g1
(g20
g3
Ntp1562
Rp1563
(lp1564
F-0.3262888098954923
aF-0.12969648937247547
aF0.3287412930653272
abag1
(g24
g3
Ntp1565
Rp1566
(lp1567
F0.6889508552534429
aF0.1639420024127207
aF-0.6829355017824661
aF0.1790777465113639
abababag1
(g2
g3
Ntp1568
Rp1569
(lp1570
g1
(g7
g3
Ntp1571
Rp1572
(lp1573
I0
ag1
(g11
g3
Ntp1574
Rp1575
(lp1576
I1607448811
aI283183097
abag1558
abag1
(g16
g3
Ntp1577
Rp1578
(lp1579
g1
(g20
g3
Ntp1580
Rp1581
(lp1582
F-0.3262888098954923
aF-0.12969648937247547
aF0.3257412930653272
abag1
(g24
g3
Ntp1583
Rp1584
(lp1585
F0.6889508552534429
aF0.1639420024127207
aF-0.6829355017824661
aF0.1790777465113639
abababag1
(g2
g3
Ntp1586
Rp1587
(lp1588
g1
(g7
g3
Ntp1589
Rp1590
(lp1591
I0
ag1
(g11
g3
Ntp1592
Rp1593
(lp1594
I1607448812
aI387165069
abaS'world'
p1595
abag1
(g16
g3
Ntp1596
Rp1597
(lp1598
g1
(g20
g3
Ntp1599
Rp1600
(lp1601
F-0.3235328961666788
aF-0.12823777215468435
aF0.32883453822336606
abag1
(g24
g3
Ntp1602
Rp1603
(lp1604
F0.6972612836083915
aF0.13050215223936443
aF-0.6897105885028703
aF0.14524184916440855
abababag1
(g2
g3
Ntp1605
Rp1606
(lp1607
g1
(g7
g3
Ntp1608
Rp1609
(lp1610
I0
ag1
(g11
g3
Ntp1611
Rp1612
(lp1613
I1607448812
aI387165069
abag1595
abag1
(g16
g3
Ntp1614
Rp1615
(lp1616
g1
(g20
g3
Ntp1617
Rp1618
(lp1619
F-0.3235328961666788
aF-0.12823777215468435
aF0.32583453822336605
abag1
(g24
g3
Ntp1620
Rp1621
(lp1622
F0.6972612836083915
aF0.13050215223936443
aF-0.6897105885028703
aF0.14524184916440855
abababag1
(g2
g3
Ntp1623
Rp1624
(lp1625
g1
(g7
g3
Ntp1626
Rp1627
(lp1628
I0
ag1
(g11
g3
Ntp1629
Rp1630
(lp1631
I1607448812
aI618792057
abaS'world'
p1632
abag1
(g16
g3
Ntp1633
Rp1634
(lp1635
g1
(g20
g3
Ntp1636
Rp1637
(lp1638
F-0.32066646554791456
aF-0.12702093963108058
aF0.32886796701230364
abag1
(g24
g3
Ntp1639
Rp1640
(lp1641
F0.6980118777945753
aF0.1286277634497102
aF-0.6896342580599867
aF0.14366247609472751
abababag1
(g2
g3
Ntp1642
Rp1643
(lp1644
g1
(g7
g3
Ntp1645
Rp1646
(lp1647
I0
ag1
(g11
g3
Ntp1648
Rp1649
(lp1650
I1607448812
aI618792057
abag1632
abag1
(g16
g3
Ntp1651
Rp1652
(lp1653
g1
(g20
g3
Ntp1654
Rp1655
(lp1656
F-0.32066646554791456
aF-0.12702093963108058
aF0.32586796701230364
abag1
(g24
g3
Ntp1657
Rp1658
(lp1659
F0.6980118777945753
aF0.1286277634497102
aF-0.6896342580599867
aF0.14366247609472751
abababag1
(g2
g3
Ntp1660
Rp1661
(lp1662
g1
(g7
g3
Ntp1663
Rp1664
(lp1665
I0
ag1
(g11
g3
Ntp1666
Rp1667
(lp1668
I1607448813
aI67075967
abaS'world'
p1669
abag1
(g16
g3
Ntp1670
Rp1671
(lp1672
g1
(g20
g3
Ntp1673
Rp1674
(lp1675
F-0.31791234253321277
aF-0.1257855326729235
aF0.3289774149334159
abag1
(g24
g3
Ntp1676
Rp1677
(lp1678
F0.7037183905529534
aF0.09996503327365114
aF-0.6940009163235478
aF0.11467409063182096
abababag1
(g2
g3
Ntp1679
Rp1680
(lp1681
g1
(g7
g3
Ntp1682
Rp1683
(lp1684
I0
ag1
(g11
g3
Ntp1685
Rp1686
(lp1687
I1607448813
aI67075967
abag1669
abag1
(g16
g3
Ntp1688
Rp1689
(lp1690
g1
(g20
g3
Ntp1691
Rp1692
(lp1693
F-0.31791234253321277
aF-0.1257855326729235
aF0.3259774149334159
abag1
(g24
g3
Ntp1694
Rp1695
(lp1696
F0.7037183905529534
aF0.09996503327365114
aF-0.6940009163235478
aF0.11467409063182096
abababag1
(g2
g3
Ntp1697
Rp1698
(lp1699
g1
(g7
g3
Ntp1700
Rp1701
(lp1702
I0
ag1
(g11
g3
Ntp1703
Rp1704
(lp1705
I1607448817
aI66478967
abaS'world'
p1706
abag1
(g16
g3
Ntp1707
Rp1708
(lp1709
g1
(g20
g3
Ntp1710
Rp1711
(lp1712
F-0.3159031897584499
aF-0.12352339991697336
aF0.3291109781493802
abag1
(g24
g3
Ntp1713
Rp1714
(lp1715
F0.7111259358600628
aF0.03731841198964378
aF-0.7001939541935827
aF0.05133873765955279
abababag1
(g2
g3
Ntp1716
Rp1717
(lp1718
g1
(g7
g3
Ntp1719
Rp1720
(lp1721
I0
ag1
(g11
g3
Ntp1722
Rp1723
(lp1724
I1607448817
aI66478967
abag1706
abag1
(g16
g3
Ntp1725
Rp1726
(lp1727
g1
(g20
g3
Ntp1728
Rp1729
(lp1730
F-0.3159031897584499
aF-0.12352339991697336
aF0.32611097814938017
abag1
(g24
g3
Ntp1731
Rp1732
(lp1733
F0.7111259358600628
aF0.03731841198964378
aF-0.7001939541935827
aF0.05133873765955279
abababag1
(g2
g3
Ntp1734
Rp1735
(lp1736
g1
(g7
g3
Ntp1737
Rp1738
(lp1739
I0
ag1
(g11
g3
Ntp1740
Rp1741
(lp1742
I1607448817
aI602755069
abaS'world'
p1743
abag1
(g16
g3
Ntp1744
Rp1745
(lp1746
g1
(g20
g3
Ntp1747
Rp1748
(lp1749
F-0.3128415383626716
aF-0.1229815297613785
aF0.32910274596328665
abag1
(g24
g3
Ntp1750
Rp1751
(lp1752
F0.7128317305970895
aF0.017768284885944202
aF-0.7003707992977519
aF0.032186261000596836
abababag1
(g2
g3
Ntp1753
Rp1754
(lp1755
g1
(g7
g3
Ntp1756
Rp1757
(lp1758
I0
ag1
(g11
g3
Ntp1759
Rp1760
(lp1761
I1607448817
aI602755069
abag1743
abag1
(g16
g3
Ntp1762
Rp1763
(lp1764
g1
(g20
g3
Ntp1765
Rp1766
(lp1767
F-0.3128415383626716
aF-0.1229815297613785
aF0.32610274596328664
abag1
(g24
g3
Ntp1768
Rp1769
(lp1770
F0.7128317305970895
aF0.017768284885944202
aF-0.7003707992977519
aF0.032186261000596836
abababag1
(g2
g3
Ntp1771
Rp1772
(lp1773
g1
(g7
g3
Ntp1774
Rp1775
(lp1776
I0
ag1
(g11
g3
Ntp1777
Rp1778
(lp1779
I1607448817
aI794420957
abaS'world'
p1780
abag1
(g16
g3
Ntp1781
Rp1782
(lp1783
g1
(g20
g3
Ntp1784
Rp1785
(lp1786
F-0.3098069810634011
aF-0.12324392068465756
aF0.32932397828022053
abag1
(g24
g3
Ntp1787
Rp1788
(lp1789
F0.7132705454855357
aF0.017471409201411943
aF-0.6999452420266781
aF0.031883176872739574
abababag1
(g2
g3
Ntp1790
Rp1791
(lp1792
g1
(g7
g3
Ntp1793
Rp1794
(lp1795
I0
ag1
(g11
g3
Ntp1796
Rp1797
(lp1798
I1607448817
aI794420957
abag1780
abag1
(g16
g3
Ntp1799
Rp1800
(lp1801
g1
(g20
g3
Ntp1802
Rp1803
(lp1804
F-0.3098069810634011
aF-0.12324392068465756
aF0.32632397828022053
abag1
(g24
g3
Ntp1805
Rp1806
(lp1807
F0.7132705454855357
aF0.017471409201411943
aF-0.6999452420266781
aF0.031883176872739574
abababag1
(g2
g3
Ntp1808
Rp1809
(lp1810
g1
(g7
g3
Ntp1811
Rp1812
(lp1813
I0
ag1
(g11
g3
Ntp1814
Rp1815
(lp1816
I1607448818
aI154889106
abaS'world'
p1817
abag1
(g16
g3
Ntp1818
Rp1819
(lp1820
g1
(g20
g3
Ntp1821
Rp1822
(lp1823
F-0.3069627600581288
aF-0.12223216965199862
aF0.3293159671806775
abag1
(g24
g3
Ntp1824
Rp1825
(lp1826
F0.7137600904358894
aF0.015592592294236781
aF-0.6995560249088463
aF0.03041007037529451
abababag1
(g2
g3
Ntp1827
Rp1828
(lp1829
g1
(g7
g3
Ntp1830
Rp1831
(lp1832
I0
ag1
(g11
g3
Ntp1833
Rp1834
(lp1835
I1607448818
aI154889106
abag1817
abag1
(g16
g3
Ntp1836
Rp1837
(lp1838
g1
(g20
g3
Ntp1839
Rp1840
(lp1841
F-0.3069627600581288
aF-0.12223216965199862
aF0.3263159671806775
abag1
(g24
g3
Ntp1842
Rp1843
(lp1844
F0.7137600904358894
aF0.015592592294236781
aF-0.6995560249088463
aF0.03041007037529451
abababag1
(g2
g3
Ntp1845
Rp1846
(lp1847
g1
(g7
g3
Ntp1848
Rp1849
(lp1850
I0
ag1
(g11
g3
Ntp1851
Rp1852
(lp1853
I1607448818
aI578632116
abaS'world'
p1854
abag1
(g16
g3
Ntp1855
Rp1856
(lp1857
g1
(g20
g3
Ntp1858
Rp1859
(lp1860
F-0.30407789407551744
aF-0.12132295598654959
aF0.3294084513013146
abag1
(g24
g3
Ntp1861
Rp1862
(lp1863
F0.7141451686319065
aF0.011598201926210618
aF-0.6993746177030379
aF0.027153341314002703
abababag1
(g2
g3
Ntp1864
Rp1865
(lp1866
g1
(g7
g3
Ntp1867
Rp1868
(lp1869
I0
ag1
(g11
g3
Ntp1870
Rp1871
(lp1872
I1607448818
aI578632116
abag1854
abag1
(g16
g3
Ntp1873
Rp1874
(lp1875
g1
(g20
g3
Ntp1876
Rp1877
(lp1878
F-0.30407789407551744
aF-0.12132295598654959
aF0.3264084513013146
abag1
(g24
g3
Ntp1879
Rp1880
(lp1881
F0.7141451686319065
aF0.011598201926210618
aF-0.6993746177030379
aF0.027153341314002703
abababag1
(g2
g3
Ntp1882
Rp1883
(lp1884
g1
(g7
g3
Ntp1885
Rp1886
(lp1887
I0
ag1
(g11
g3
Ntp1888
Rp1889
(lp1890
I1607448818
aI754796981
abaS'world'
p1891
abag1
(g16
g3
Ntp1892
Rp1893
(lp1894
g1
(g20
g3
Ntp1895
Rp1896
(lp1897
F-0.30104592846095835
aF-0.12158535849462108
aF0.32950608330174275
abag1
(g24
g3
Ntp1898
Rp1899
(lp1900
F0.7149721821208855
aF-0.00012383317285380452
aF-0.6989839157010537
aF0.015370395241078064
abababag1
(g2
g3
Ntp1901
Rp1902
(lp1903
g1
(g7
g3
Ntp1904
Rp1905
(lp1906
I0
ag1
(g11
g3
Ntp1907
Rp1908
(lp1909
I1607448818
aI754796981
abag1891
abag1
(g16
g3
Ntp1910
Rp1911
(lp1912
g1
(g20
g3
Ntp1913
Rp1914
(lp1915
F-0.30104592846095835
aF-0.12158535849462108
aF0.32650608330174274
abag1
(g24
g3
Ntp1916
Rp1917
(lp1918
F0.7149721821208855
aF-0.00012383317285380452
aF-0.6989839157010537
aF0.015370395241078064
abababag1
(g2
g3
Ntp1919
Rp1920
(lp1921
g1
(g7
g3
Ntp1922
Rp1923
(lp1924
I0
ag1
(g11
g3
Ntp1925
Rp1926
(lp1927
I1607448819
aI2814054
abaS'world'
p1928
abag1
(g16
g3
Ntp1929
Rp1930
(lp1931
g1
(g20
g3
Ntp1932
Rp1933
(lp1934
F-0.29804752564796266
aF-0.12215980601552533
aF0.3297093701422268
abag1
(g24
g3
Ntp1935
Rp1936
(lp1937
F0.7153609236774399
aF-0.0015714064063271683
aF-0.698616644098518
aF0.013822595479542732
abababag1
(g2
g3
Ntp1938
Rp1939
(lp1940
g1
(g7
g3
Ntp1941
Rp1942
(lp1943
I0
ag1
(g11
g3
Ntp1944
Rp1945
(lp1946
I1607448819
aI2814054
abag1928
abag1
(g16
g3
Ntp1947
Rp1948
(lp1949
g1
(g20
g3
Ntp1950
Rp1951
(lp1952
F-0.29804752564796266
aF-0.12215980601552533
aF0.3267093701422268
abag1
(g24
g3
Ntp1953
Rp1954
(lp1955
F0.7153609236774399
aF-0.0015714064063271683
aF-0.698616644098518
aF0.013822595479542732
abababag1
(g2
g3
Ntp1956
Rp1957
(lp1958
g1
(g7
g3
Ntp1959
Rp1960
(lp1961
I0
ag1
(g11
g3
Ntp1962
Rp1963
(lp1964
I1607448819
aI178957939
abaS'world'
p1965
abag1
(g16
g3
Ntp1966
Rp1967
(lp1968
g1
(g20
g3
Ntp1969
Rp1970
(lp1971
F-0.2950558753036247
aF-0.12260790388598602
aF0.32992651257878425
abag1
(g24
g3
Ntp1972
Rp1973
(lp1974
F0.7157497528336387
aF-0.0009196517950712018
aF-0.6982293001262132
aF0.013315029268448237
abababag1
(g2
g3
Ntp1975
Rp1976
(lp1977
g1
(g7
g3
Ntp1978
Rp1979
(lp1980
I0
ag1
(g11
g3
Ntp1981
Rp1982
(lp1983
I1607448819
aI178957939
abag1965
abag1
(g16
g3
Ntp1984
Rp1985
(lp1986
g1
(g20
g3
Ntp1987
Rp1988
(lp1989
F-0.2950558753036247
aF-0.12260790388598602
aF0.32692651257878425
abag1
(g24
g3
Ntp1990
Rp1991
(lp1992
F0.7157497528336387
aF-0.0009196517950712018
aF-0.6982293001262132
aF0.013315029268448237
abababag1
(g2
g3
Ntp1993
Rp1994
(lp1995
g1
(g7
g3
Ntp1996
Rp1997
(lp1998
I0
ag1
(g11
g3
Ntp1999
Rp2000
(lp2001
I1607448819
aI370860099
abaS'world'
p2002
abag1
(g16
g3
Ntp2003
Rp2004
(lp2005
g1
(g20
g3
Ntp2006
Rp2007
(lp2008
F-0.29200538849265617
aF-0.12300490158418126
aF0.33011068792043313
abag1
(g24
g3
Ntp2009
Rp2010
(lp2011
F0.7162034095851612
aF-4.048422205661935e-05
aF-0.6977748609728753
aF0.012763927839909484
abababag1
(g2
g3
Ntp2012
Rp2013
(lp2014
g1
(g7
g3
Ntp2015
Rp2016
(lp2017
I0
ag1
(g11
g3
Ntp2018
Rp2019
(lp2020
I1607448819
aI370860099
abag2002
abag1
(g16
g3
Ntp2021
Rp2022
(lp2023
g1
(g20
g3
Ntp2024
Rp2025
(lp2026
F-0.29200538849265617
aF-0.12300490158418126
aF0.32711068792043313
abag1
(g24
g3
Ntp2027
Rp2028
(lp2029
F0.7162034095851612
aF-4.048422205661935e-05
aF-0.6977748609728753
aF0.012763927839909484
abababag1
(g2
g3
Ntp2030
Rp2031
(lp2032
g1
(g7
g3
Ntp2033
Rp2034
(lp2035
I0
ag1
(g11
g3
Ntp2036
Rp2037
(lp2038
I1607448819
aI738728046
abaS'world'
p2039
abag1
(g16
g3
Ntp2040
Rp2041
(lp2042
g1
(g20
g3
Ntp2043
Rp2044
(lp2045
F-0.2889633449280092
aF-0.1232776797989553
aF0.330177175185841
abag1
(g24
g3
Ntp2046
Rp2047
(lp2048
F0.7170202575463027
aF0.0011724675385849212
aF-0.6969467031144037
aF0.01207760763017019
abababag1
(g2
g3
Ntp2049
Rp2050
(lp2051
g1
(g7
g3
Ntp2052
Rp2053
(lp2054
I0
ag1
(g11
g3
Ntp2055
Rp2056
(lp2057
I1607448819
aI738728046
abag2039
abag1
(g16
g3
Ntp2058
Rp2059
(lp2060
g1
(g20
g3
Ntp2061
Rp2062
(lp2063
F-0.2889633449280092
aF-0.1232776797989553
aF0.327177175185841
abag1
(g24
g3
Ntp2064
Rp2065
(lp2066
F0.7170202575463027
aF0.0011724675385849212
aF-0.6969467031144037
aF0.01207760763017019
abababag1
(g2
g3
Ntp2067
Rp2068
(lp2069
g1
(g7
g3
Ntp2070
Rp2071
(lp2072
I0
ag1
(g11
g3
Ntp2073
Rp2074
(lp2075
I1607448819
aI858594894
abaS'world'
p2076
abag1
(g16
g3
Ntp2077
Rp2078
(lp2079
g1
(g20
g3
Ntp2080
Rp2081
(lp2082
F-0.2857739583311913
aF-0.12358268553370157
aF0.3304179795889248
abag1
(g24
g3
Ntp2083
Rp2084
(lp2085
F0.717807179486546
aF0.0012801256582133894
aF-0.6961452218532845
aF0.011534489442974829
abababag1
(g2
g3
Ntp2086
Rp2087
(lp2088
g1
(g7
g3
Ntp2089
Rp2090
(lp2091
I0
ag1
(g11
g3
Ntp2092
Rp2093
(lp2094
I1607448819
aI858594894
abag2076
abag1
(g16
g3
Ntp2095
Rp2096
(lp2097
g1
(g20
g3
Ntp2098
Rp2099
(lp2100
F-0.2857739583311913
aF-0.12358268553370157
aF0.3274179795889248
abag1
(g24
g3
Ntp2101
Rp2102
(lp2103
F0.717807179486546
aF0.0012801256582133894
aF-0.6961452218532845
aF0.011534489442974829
abababag1
(g2
g3
Ntp2104
Rp2105
(lp2106
g1
(g7
g3
Ntp2107
Rp2108
(lp2109
I0
ag1
(g11
g3
Ntp2110
Rp2111
(lp2112
I1607448819
aI954682111
abaS'world'
p2113
abag1
(g16
g3
Ntp2114
Rp2115
(lp2116
g1
(g20
g3
Ntp2117
Rp2118
(lp2119
F-0.2825943342392808
aF-0.12408139652927157
aF0.3306531699111913
abag1
(g24
g3
Ntp2120
Rp2121
(lp2122
F0.7180519670464317
aF0.0019241611912141573
aF-0.695900607037045
aF0.01095515175306974
abababag1
(g2
g3
Ntp2123
Rp2124
(lp2125
g1
(g7
g3
Ntp2126
Rp2127
(lp2128
I0
ag1
(g11
g3
Ntp2129
Rp2130
(lp2131
I1607448819
aI954682111
abag2113
abag1
(g16
g3
Ntp2132
Rp2133
(lp2134
g1
(g20
g3
Ntp2135
Rp2136
(lp2137
F-0.2825943342392808
aF-0.12408139652927157
aF0.3276531699111913
abag1
(g24
g3
Ntp2138
Rp2139
(lp2140
F0.7180519670464317
aF0.0019241611912141573
aF-0.695900607037045
aF0.01095515175306974
abababag1
(g2
g3
Ntp2141
Rp2142
(lp2143
g1
(g7
g3
Ntp2144
Rp2145
(lp2146
I0
ag1
(g11
g3
Ntp2147
Rp2148
(lp2149
I1607448820
aI378528118
abaS'world'
p2150
abag1
(g16
g3
Ntp2151
Rp2152
(lp2153
g1
(g20
g3
Ntp2154
Rp2155
(lp2156
F-0.2795323006395867
aF-0.12437571111148236
aF0.3306689765256562
abag1
(g24
g3
Ntp2157
Rp2158
(lp2159
F0.7186913601718629
aF0.003443949497771337
aF-0.6952336200762592
aF0.011003705822789586
abababag1
(g2
g3
Ntp2160
Rp2161
(lp2162
g1
(g7
g3
Ntp2163
Rp2164
(lp2165
I0
ag1
(g11
g3
Ntp2166
Rp2167
(lp2168
I1607448820
aI378528118
abag2150
abag1
(g16
g3
Ntp2169
Rp2170
(lp2171
g1
(g20
g3
Ntp2172
Rp2173
(lp2174
F-0.2795323006395867
aF-0.12437571111148236
aF0.3276689765256562
abag1
(g24
g3
Ntp2175
Rp2176
(lp2177
F0.7186913601718629
aF0.003443949497771337
aF-0.6952336200762592
aF0.011003705822789586
abababag1
(g2
g3
Ntp2178
Rp2179
(lp2180
g1
(g7
g3
Ntp2181
Rp2182
(lp2183
I0
ag1
(g11
g3
Ntp2184
Rp2185
(lp2186
I1607448820
aI547141075
abaS'world'
p2187
abag1
(g16
g3
Ntp2188
Rp2189
(lp2190
g1
(g20
g3
Ntp2191
Rp2192
(lp2193
F-0.27647967017062614
aF-0.12480070376618077
aF0.3308571467403534
abag1
(g24
g3
Ntp2194
Rp2195
(lp2196
F0.7189181550899719
aF0.004080912360574238
aF-0.6950052318270631
aF0.010380759574660179
abababag1
(g2
g3
Ntp2197
Rp2198
(lp2199
g1
(g7
g3
Ntp2200
Rp2201
(lp2202
I0
ag1
(g11
g3
Ntp2203
Rp2204
(lp2205
I1607448820
aI547141075
abag2187
abag1
(g16
g3
Ntp2206
Rp2207
(lp2208
g1
(g20
g3
Ntp2209
Rp2210
(lp2211
F-0.27647967017062614
aF-0.12480070376618077
aF0.3278571467403534
abag1
(g24
g3
Ntp2212
Rp2213
(lp2214
F0.7189181550899719
aF0.004080912360574238
aF-0.6950052318270631
aF0.010380759574660179
abababag1
(g2
g3
Ntp2215
Rp2216
(lp2217
g1
(g7
g3
Ntp2218
Rp2219
(lp2220
I0
ag1
(g11
g3
Ntp2221
Rp2222
(lp2223
I1607448820
aI858553886
abaS'world'
p2224
abag1
(g16
g3
Ntp2225
Rp2226
(lp2227
g1
(g20
g3
Ntp2228
Rp2229
(lp2230
F-0.27343148111471377
aF-0.12468357570934806
aF0.330927946500516
abag1
(g24
g3
Ntp2231
Rp2232
(lp2233
F0.7203059335839505
aF0.015827182060907326
aF-0.6931028453197672
aF0.02274440945392106
abababag1
(g2
g3
Ntp2234
Rp2235
(lp2236
g1
(g7
g3
Ntp2237
Rp2238
(lp2239
I0
ag1
(g11
g3
Ntp2240
Rp2241
(lp2242
I1607448820
aI858553886
abag2224
abag1
(g16
g3
Ntp2243
Rp2244
(lp2245
g1
(g20
g3
Ntp2246
Rp2247
(lp2248
F-0.27343148111471377
aF-0.12468357570934806
aF0.327927946500516
abag1
(g24
g3
Ntp2249
Rp2250
(lp2251
F0.7203059335839505
aF0.015827182060907326
aF-0.6931028453197672
aF0.02274440945392106
abababag1
(g2
g3
Ntp2252
Rp2253
(lp2254
g1
(g7
g3
Ntp2255
Rp2256
(lp2257
I0
ag1
(g11
g3
Ntp2258
Rp2259
(lp2260
I1607448821
aI90564012
abaS'world'
p2261
abag1
(g16
g3
Ntp2262
Rp2263
(lp2264
g1
(g20
g3
Ntp2265
Rp2266
(lp2267
F-0.2707377548107295
aF-0.12316672515035458
aF0.3309288285410148
abag1
(g24
g3
Ntp2268
Rp2269
(lp2270
F0.7227945383921851
aF0.015161090792745519
aF-0.690476512517915
aF0.02409112403977303
abababag1
(g2
g3
Ntp2271
Rp2272
(lp2273
g1
(g7
g3
Ntp2274
Rp2275
(lp2276
I0
ag1
(g11
g3
Ntp2277
Rp2278
(lp2279
I1607448821
aI90564012
abag2261
abag1
(g16
g3
Ntp2280
Rp2281
(lp2282
g1
(g20
g3
Ntp2283
Rp2284
(lp2285
F-0.2707377548107295
aF-0.12316672515035458
aF0.3279288285410148
abag1
(g24
g3
Ntp2286
Rp2287
(lp2288
F0.7227945383921851
aF0.015161090792745519
aF-0.690476512517915
aF0.02409112403977303
abababag1
(g2
g3
Ntp2289
Rp2290
(lp2291
g1
(g7
g3
Ntp2292
Rp2293
(lp2294
I0
ag1
(g11
g3
Ntp2295
Rp2296
(lp2297
I1607448821
aI226558923
abaS'world'
p2298
abag1
(g16
g3
Ntp2299
Rp2300
(lp2301
g1
(g20
g3
Ntp2302
Rp2303
(lp2304
F-0.26771712455634866
aF-0.12312774884376834
aF0.33102065807457426
abag1
(g24
g3
Ntp2305
Rp2306
(lp2307
F0.724028132794108
aF0.013889640894624865
aF-0.689228467392432
aF0.02354698567492813
abababag1
(g2
g3
Ntp2308
Rp2309
(lp2310
g1
(g7
g3
Ntp2311
Rp2312
(lp2313
I0
ag1
(g11
g3
Ntp2314
Rp2315
(lp2316
I1607448821
aI226558923
abag2298
abag1
(g16
g3
Ntp2317
Rp2318
(lp2319
g1
(g20
g3
Ntp2320
Rp2321
(lp2322
F-0.26771712455634866
aF-0.12312774884376834
aF0.32802065807457426
abag1
(g24
g3
Ntp2323
Rp2324
(lp2325
F0.724028132794108
aF0.013889640894624865
aF-0.689228467392432
aF0.02354698567492813
abababag1
(g2
g3
Ntp2326
Rp2327
(lp2328
g1
(g7
g3
Ntp2329
Rp2330
(lp2331
I0
ag1
(g11
g3
Ntp2332
Rp2333
(lp2334
I1607448821
aI386672019
abaS'world'
p2335
abag1
(g16
g3
Ntp2336
Rp2337
(lp2338
g1
(g20
g3
Ntp2339
Rp2340
(lp2341
F-0.2647133456997768
aF-0.12340955614848544
aF0.3312631489869361
abag1
(g24
g3
Ntp2342
Rp2343
(lp2344
F0.7238966574372917
aF0.01343938952434077
aF-0.6893932868468075
aF0.023019735247932598
abababag1
(g2
g3
Ntp2345
Rp2346
(lp2347
g1
(g7
g3
Ntp2348
Rp2349
(lp2350
I0
ag1
(g11
g3
Ntp2351
Rp2352
(lp2353
I1607448821
aI386672019
abag2335
abag1
(g16
g3
Ntp2354
Rp2355
(lp2356
g1
(g20
g3
Ntp2357
Rp2358
(lp2359
F-0.2647133456997768
aF-0.12340955614848544
aF0.3282631489869361
abag1
(g24
g3
Ntp2360
Rp2361
(lp2362
F0.7238966574372917
aF0.01343938952434077
aF-0.6893932868468075
aF0.023019735247932598
abababag1
(g2
g3
Ntp2363
Rp2364
(lp2365
g1
(g7
g3
Ntp2366
Rp2367
(lp2368
I0
ag1
(g11
g3
Ntp2369
Rp2370
(lp2371
I1607448821
aI530725002
abaS'world'
p2372
abag1
(g16
g3
Ntp2373
Rp2374
(lp2375
g1
(g20
g3
Ntp2376
Rp2377
(lp2378
F-0.26171171335328247
aF-0.12307572297022858
aF0.33134170640696997
abag1
(g24
g3
Ntp2379
Rp2380
(lp2381
F0.723894138225611
aF0.012037157303292186
aF-0.6894568184617255
aF0.021947185771559782
abababag1
(g2
g3
Ntp2382
Rp2383
(lp2384
g1
(g7
g3
Ntp2385
Rp2386
(lp2387
I0
ag1
(g11
g3
Ntp2388
Rp2389
(lp2390
I1607448821
aI530725002
abag2372
abag1
(g16
g3
Ntp2391
Rp2392
(lp2393
g1
(g20
g3
Ntp2394
Rp2395
(lp2396
F-0.26171171335328247
aF-0.12307572297022858
aF0.32834170640696997
abag1
(g24
g3
Ntp2397
Rp2398
(lp2399
F0.723894138225611
aF0.012037157303292186
aF-0.6894568184617255
aF0.021947185771559782
abababag1
(g2
g3
Ntp2400
Rp2401
(lp2402
g1
(g7
g3
Ntp2403
Rp2404
(lp2405
I0
ag1
(g11
g3
Ntp2406
Rp2407
(lp2408
I1607448821
aI714679002
abaS'world'
p2409
abag1
(g16
g3
Ntp2410
Rp2411
(lp2412
g1
(g20
g3
Ntp2413
Rp2414
(lp2415
F-0.2586079094257065
aF-0.1229860036366516
aF0.33133567183283197
abag1
(g24
g3
Ntp2416
Rp2417
(lp2418
F0.7239826532126392
aF0.011095972302267122
aF-0.6894069357950048
aF0.021073066307428532
abababag1
(g2
g3
Ntp2419
Rp2420
(lp2421
g1
(g7
g3
Ntp2422
Rp2423
(lp2424
I0
ag1
(g11
g3
Ntp2425
Rp2426
(lp2427
I1607448821
aI714679002
abag2409
abag1
(g16
g3
Ntp2428
Rp2429
(lp2430
g1
(g20
g3
Ntp2431
Rp2432
(lp2433
F-0.2586079094257065
aF-0.1229860036366516
aF0.32833567183283197
abag1
(g24
g3
Ntp2434
Rp2435
(lp2436
F0.7239826532126392
aF0.011095972302267122
aF-0.6894069357950048
aF0.021073066307428532
abababag1
(g2
g3
Ntp2437
Rp2438
(lp2439
g1
(g7
g3
Ntp2440
Rp2441
(lp2442
I0
ag1
(g11
g3
Ntp2443
Rp2444
(lp2445
I1607448821
aI882846117
abaS'world'
p2446
abag1
(g16
g3
Ntp2447
Rp2448
(lp2449
g1
(g20
g3
Ntp2450
Rp2451
(lp2452
F-0.2555468933790896
aF-0.1231840422780937
aF0.33152728244091495
abag1
(g24
g3
Ntp2453
Rp2454
(lp2455
F0.7238291443618343
aF0.01061411680365832
aF-0.689594629442525
aF0.020444005011730305
abababag1
(g2
g3
Ntp2456
Rp2457
(lp2458
g1
(g7
g3
Ntp2459
Rp2460
(lp2461
I0
ag1
(g11
g3
Ntp2462
Rp2463
(lp2464
I1607448821
aI882846117
abag2446
abag1
(g16
g3
Ntp2465
Rp2466
(lp2467
g1
(g20
g3
Ntp2468
Rp2469
(lp2470
F-0.2555468933790896
aF-0.1231840422780937
aF0.32852728244091495
abag1
(g24
g3
Ntp2471
Rp2472
(lp2473
F0.7238291443618343
aF0.01061411680365832
aF-0.689594629442525
aF0.020444005011730305
abababag1
(g2
g3
Ntp2474
Rp2475
(lp2476
g1
(g7
g3
Ntp2477
Rp2478
(lp2479
I0
ag1
(g11
g3
Ntp2480
Rp2481
(lp2482
I1607448822
aI250765085
abaS'world'
p2483
abag1
(g16
g3
Ntp2484
Rp2485
(lp2486
g1
(g20
g3
Ntp2487
Rp2488
(lp2489
F-0.2525624008712191
aF-0.12277734934410715
aF0.3314945518115277
abag1
(g24
g3
Ntp2490
Rp2491
(lp2492
F0.7268248183909388
aF0.008609335962323378
aF-0.6864793163162859
aF0.01994269227540319
abababag1
(g2
g3
Ntp2493
Rp2494
(lp2495
g1
(g7
g3
Ntp2496
Rp2497
(lp2498
I0
ag1
(g11
g3
Ntp2499
Rp2500
(lp2501
I1607448822
aI250765085
abag2483
abag1
(g16
g3
Ntp2502
Rp2503
(lp2504
g1
(g20
g3
Ntp2505
Rp2506
(lp2507
F-0.2525624008712191
aF-0.12277734934410715
aF0.3284945518115277
abag1
(g24
g3
Ntp2508
Rp2509
(lp2510
F0.7268248183909388
aF0.008609335962323378
aF-0.6864793163162859
aF0.01994269227540319
abababag1
(g2
g3
Ntp2511
Rp2512
(lp2513
g1
(g7
g3
Ntp2514
Rp2515
(lp2516
I0
ag1
(g11
g3
Ntp2517
Rp2518
(lp2519
I1607448822
aI506663084
abaS'world'
p2520
abag1
(g16
g3
Ntp2521
Rp2522
(lp2523
g1
(g20
g3
Ntp2524
Rp2525
(lp2526
F-0.2495472614689074
aF-0.12265373107433777
aF0.3315299589021317
abag1
(g24
g3
Ntp2527
Rp2528
(lp2529
F0.728620816764815
aF0.007303761574538826
aF-0.684603115170258
aF0.019414817614773573
abababag1
(g2
g3
Ntp2530
Rp2531
(lp2532
g1
(g7
g3
Ntp2533
Rp2534
(lp2535
I0
ag1
(g11
g3
Ntp2536
Rp2537
(lp2538
I1607448822
aI506663084
abag2520
abag1
(g16
g3
Ntp2539
Rp2540
(lp2541
g1
(g20
g3
Ntp2542
Rp2543
(lp2544
F-0.2495472614689074
aF-0.12265373107433777
aF0.3285299589021317
abag1
(g24
g3
Ntp2545
Rp2546
(lp2547
F0.728620816764815
aF0.007303761574538826
aF-0.684603115170258
aF0.019414817614773573
abababag1
(g2
g3
Ntp2548
Rp2549
(lp2550
g1
(g7
g3
Ntp2551
Rp2552
(lp2553
I0
ag1
(g11
g3
Ntp2554
Rp2555
(lp2556
I1607448822
aI722764968
abaS'world'
p2557
abag1
(g16
g3
Ntp2558
Rp2559
(lp2560
g1
(g20
g3
Ntp2561
Rp2562
(lp2563
F-0.2464187091865932
aF-0.12289531780069034
aF0.331753756789701
abag1
(g24
g3
Ntp2564
Rp2565
(lp2566
F0.7283800596239177
aF0.007005752915918533
aF-0.6848828976562725
aF0.01867684840349492
abababag1
(g2
g3
Ntp2567
Rp2568
(lp2569
g1
(g7
g3
Ntp2570
Rp2571
(lp2572
I0
ag1
(g11
g3
Ntp2573
Rp2574
(lp2575
I1607448822
aI722764968
abag2557
abag1
(g16
g3
Ntp2576
Rp2577
(lp2578
g1
(g20
g3
Ntp2579
Rp2580
(lp2581
F-0.2464187091865932
aF-0.12289531780069034
aF0.328753756789701
abag1
(g24
g3
Ntp2582
Rp2583
(lp2584
F0.7283800596239177
aF0.007005752915918533
aF-0.6848828976562725
aF0.01867684840349492
abababag1
(g2
g3
Ntp2585
Rp2586
(lp2587
g1
(g7
g3
Ntp2588
Rp2589
(lp2590
I0
ag1
(g11
g3
Ntp2591
Rp2592
(lp2593
I1607448822
aI818181991
abaS'world'
p2594
abag1
(g16
g3
Ntp2595
Rp2596
(lp2597
g1
(g20
g3
Ntp2598
Rp2599
(lp2600
F-0.24338234827028304
aF-0.12325241655621871
aF0.3319045466508879
abag1
(g24
g3
Ntp2601
Rp2602
(lp2603
F0.7282279137199069
aF0.007181295259463815
aF-0.6850626269803579
aF0.017936883573224906
abababag1
(g2
g3
Ntp2604
Rp2605
(lp2606
g1
(g7
g3
Ntp2607
Rp2608
(lp2609
I0
ag1
(g11
g3
Ntp2610
Rp2611
(lp2612
I1607448822
aI818181991
abag2594
abag1
(g16
g3
Ntp2613
Rp2614
(lp2615
g1
(g20
g3
Ntp2616
Rp2617
(lp2618
F-0.24338234827028304
aF-0.12325241655621871
aF0.3289045466508879
abag1
(g24
g3
Ntp2619
Rp2620
(lp2621
F0.7282279137199069
aF0.007181295259463815
aF-0.6850626269803579
aF0.017936883573224906
abababag1
(g2
g3
Ntp2622
Rp2623
(lp2624
g1
(g7
g3
Ntp2625
Rp2626
(lp2627
I0
ag1
(g11
g3
Ntp2628
Rp2629
(lp2630
I1607448822
aI914577007
abaS'world'
p2631
abag1
(g16
g3
Ntp2632
Rp2633
(lp2634
g1
(g20
g3
Ntp2635
Rp2636
(lp2637
F-0.24028740854677338
aF-0.12386177150120863
aF0.33202870014560926
abag1
(g24
g3
Ntp2638
Rp2639
(lp2640
F0.7280145530661823
aF0.007651902412287282
aF-0.6852964113763106
aF0.017466753220627698
abababag1
(g2
g3
Ntp2641
Rp2642
(lp2643
g1
(g7
g3
Ntp2644
Rp2645
(lp2646
I0
ag1
(g11
g3
Ntp2647
Rp2648
(lp2649
I1607448822
aI914577007
abag2631
abag1
(g16
g3
Ntp2650
Rp2651
(lp2652
g1
(g20
g3
Ntp2653
Rp2654
(lp2655
F-0.24028740854677338
aF-0.12386177150120863
aF0.32902870014560925
abag1
(g24
g3
Ntp2656
Rp2657
(lp2658
F0.7280145530661823
aF0.007651902412287282
aF-0.6852964113763106
aF0.017466753220627698
abababag1
(g2
g3
Ntp2659
Rp2660
(lp2661
g1
(g7
g3
Ntp2662
Rp2663
(lp2664
I0
ag1
(g11
g3
Ntp2665
Rp2666
(lp2667
I1607448823
aI10595083
abaS'world'
p2668
abag1
(g16
g3
Ntp2669
Rp2670
(lp2671
g1
(g20
g3
Ntp2672
Rp2673
(lp2674
F-0.23728597553593764
aF-0.12442236640678768
aF0.3322027196440528
abag1
(g24
g3
Ntp2675
Rp2676
(lp2677
F0.7277287775988416
aF0.008364667003967177
aF-0.6856068528855878
aF0.016855321911152698
abababag1
(g2
g3
Ntp2678
Rp2679
(lp2680
g1
(g7
g3
Ntp2681
Rp2682
(lp2683
I0
ag1
(g11
g3
Ntp2684
Rp2685
(lp2686
I1607448823
aI10595083
abag2668
abag1
(g16
g3
Ntp2687
Rp2688
(lp2689
g1
(g20
g3
Ntp2690
Rp2691
(lp2692
F-0.23728597553593764
aF-0.12442236640678768
aF0.3292027196440528
abag1
(g24
g3
Ntp2693
Rp2694
(lp2695
F0.7277287775988416
aF0.008364667003967177
aF-0.6856068528855878
aF0.016855321911152698
abababag1
(g2
g3
Ntp2696
Rp2697
(lp2698
g1
(g7
g3
Ntp2699
Rp2700
(lp2701
I0
ag1
(g11
g3
Ntp2702
Rp2703
(lp2704
I1607448824
aI194571018
abaS'world'
p2705
abag1
(g16
g3
Ntp2706
Rp2707
(lp2708
g1
(g20
g3
Ntp2709
Rp2710
(lp2711
F-0.23424861158538846
aF-0.12400910752627776
aF0.3321989493387835
abag1
(g24
g3
Ntp2712
Rp2713
(lp2714
F0.7328534364177398
aF0.007668383030161893
aF-0.6801590806269074
aF0.01583229841724674
abababag1
(g2
g3
Ntp2715
Rp2716
(lp2717
g1
(g7
g3
Ntp2718
Rp2719
(lp2720
I0
ag1
(g11
g3
Ntp2721
Rp2722
(lp2723
I1607448824
aI194571018
abag2705
abag1
(g16
g3
Ntp2724
Rp2725
(lp2726
g1
(g20
g3
Ntp2727
Rp2728
(lp2729
F-0.23424861158538846
aF-0.12400910752627776
aF0.3291989493387835
abag1
(g24
g3
Ntp2730
Rp2731
(lp2732
F0.7328534364177398
aF0.007668383030161893
aF-0.6801590806269074
aF0.01583229841724674
abababag1
(g2
g3
Ntp2733
Rp2734
(lp2735
g1
(g7
g3
Ntp2736
Rp2737
(lp2738
I0
ag1
(g11
g3
Ntp2739
Rp2740
(lp2741
I1607448824
aI482245922
abaS'world'
p2742
abag1
(g16
g3
Ntp2743
Rp2744
(lp2745
g1
(g20
g3
Ntp2746
Rp2747
(lp2748
F-0.23128436694547963
aF-0.12319371822217595
aF0.33234091853312503
abag1
(g24
g3
Ntp2749
Rp2750
(lp2751
F0.7335615185393335
aF0.005552635142202599
aF-0.679445444631578
aF0.01451049725689186
abababag1
(g2
g3
Ntp2752
Rp2753
(lp2754
g1
(g7
g3
Ntp2755
Rp2756
(lp2757
I0
ag1
(g11
g3
Ntp2758
Rp2759
(lp2760
I1607448824
aI482245922
abag2742
abag1
(g16
g3
Ntp2761
Rp2762
(lp2763
g1
(g20
g3
Ntp2764
Rp2765
(lp2766
F-0.23128436694547963
aF-0.12319371822217595
aF0.329340918533125
abag1
(g24
g3
Ntp2767
Rp2768
(lp2769
F0.7335615185393335
aF0.005552635142202599
aF-0.679445444631578
aF0.01451049725689186
abababag1
(g2
g3
Ntp2770
Rp2771
(lp2772
g1
(g7
g3
Ntp2773
Rp2774
(lp2775
I0
ag1
(g11
g3
Ntp2776
Rp2777
(lp2778
I1607448824
aI794334888
abaS'world'
p2779
abag1
(g16
g3
Ntp2780
Rp2781
(lp2782
g1
(g20
g3
Ntp2783
Rp2784
(lp2785
F-0.22821690083787105
aF-0.1233268176363173
aF0.3323574490854504
abag1
(g24
g3
Ntp2786
Rp2787
(lp2788
F0.7333169929072633
aF0.004853046126235461
aF-0.6797324712973816
aF0.013652960144233022
abababag1
(g2
g3
Ntp2789
Rp2790
(lp2791
g1
(g7
g3
Ntp2792
Rp2793
(lp2794
I0
ag1
(g11
g3
Ntp2795
Rp2796
(lp2797
I1607448824
aI794334888
abag2779
abag1
(g16
g3
Ntp2798
Rp2799
(lp2800
g1
(g20
g3
Ntp2801
Rp2802
(lp2803
F-0.22821690083787105
aF-0.1233268176363173
aF0.3293574490854504
abag1
(g24
g3
Ntp2804
Rp2805
(lp2806
F0.7333169929072633
aF0.004853046126235461
aF-0.6797324712973816
aF0.013652960144233022
abababag1
(g2
g3
Ntp2807
Rp2808
(lp2809
g1
(g7
g3
Ntp2810
Rp2811
(lp2812
I0
ag1
(g11
g3
Ntp2813
Rp2814
(lp2815
I1607448824
aI930510997
abaS'world'
p2816
abag1
(g16
g3
Ntp2817
Rp2818
(lp2819
g1
(g20
g3
Ntp2820
Rp2821
(lp2822
F-0.22507643201762212
aF-0.12351263198070915
aF0.33247160750865334
abag1
(g24
g3
Ntp2823
Rp2824
(lp2825
F0.7328664575709526
aF0.004250999096842036
aF-0.6802391875281326
aF0.01278014574047904
abababag1
(g2
g3
Ntp2826
Rp2827
(lp2828
g1
(g7
g3
Ntp2829
Rp2830
(lp2831
I0
ag1
(g11
g3
Ntp2832
Rp2833
(lp2834
I1607448824
aI930510997
abag2816
abag1
(g16
g3
Ntp2835
Rp2836
(lp2837
g1
(g20
g3
Ntp2838
Rp2839
(lp2840
F-0.22507643201762212
aF-0.12351263198070915
aF0.32947160750865334
abag1
(g24
g3
Ntp2841
Rp2842
(lp2843
F0.7328664575709526
aF0.004250999096842036
aF-0.6802391875281326
aF0.01278014574047904
abababag1
(g2
g3
Ntp2844
Rp2845
(lp2846
g1
(g7
g3
Ntp2847
Rp2848
(lp2849
I0
ag1
(g11
g3
Ntp2850
Rp2851
(lp2852
I1607448825
aI186163902
abaS'world'
p2853
abag1
(g16
g3
Ntp2854
Rp2855
(lp2856
g1
(g20
g3
Ntp2857
Rp2858
(lp2859
F-0.22203462251401854
aF-0.1233094800221763
aF0.3325373439783928
abag1
(g24
g3
Ntp2860
Rp2861
(lp2862
F0.7340816861498946
aF0.00269632652260208
aF-0.6789515286555076
aF0.011900824297546849
abababag1
(g2
g3
Ntp2863
Rp2864
(lp2865
g1
(g7
g3
Ntp2866
Rp2867
(lp2868
I0
ag1
(g11
g3
Ntp2869
Rp2870
(lp2871
I1607448825
aI186163902
abag2853
abag1
(g16
g3
Ntp2872
Rp2873
(lp2874
g1
(g20
g3
Ntp2875
Rp2876
(lp2877
F-0.22203462251401854
aF-0.1233094800221763
aF0.3295373439783928
abag1
(g24
g3
Ntp2878
Rp2879
(lp2880
F0.7340816861498946
aF0.00269632652260208
aF-0.6789515286555076
aF0.011900824297546849
abababag1
(g2
g3
Ntp2881
Rp2882
(lp2883
g1
(g7
g3
Ntp2884
Rp2885
(lp2886
I0
ag1
(g11
g3
Ntp2887
Rp2888
(lp2889
I1607448825
aI306102991
abaS'world'
p2890
abag1
(g16
g3
Ntp2891
Rp2892
(lp2893
g1
(g20
g3
Ntp2894
Rp2895
(lp2896
F-0.21892049206126885
aF-0.12308951077230426
aF0.33255849094294393
abag1
(g24
g3
Ntp2897
Rp2898
(lp2899
F0.7369295407798587
aF0.0007156201501345238
aF-0.6758729226040566
aF0.011407554708979351
abababag1
(g2
g3
Ntp2900
Rp2901
(lp2902
g1
(g7
g3
Ntp2903
Rp2904
(lp2905
I0
ag1
(g11
g3
Ntp2906
Rp2907
(lp2908
I1607448825
aI306102991
abag2890
abag1
(g16
g3
Ntp2909
Rp2910
(lp2911
g1
(g20
g3
Ntp2912
Rp2913
(lp2914
F-0.21892049206126885
aF-0.12308951077230426
aF0.3295584909429439
abag1
(g24
g3
Ntp2915
Rp2916
(lp2917
F0.7369295407798587
aF0.0007156201501345238
aF-0.6758729226040566
aF0.011407554708979351
abababag1
(g2
g3
Ntp2918
Rp2919
(lp2920
g1
(g7
g3
Ntp2921
Rp2922
(lp2923
I0
ag1
(g11
g3
Ntp2924
Rp2925
(lp2926
I1607448825
aI706701993
abaS'world'
p2927
abag1
(g16
g3
Ntp2928
Rp2929
(lp2930
g1
(g20
g3
Ntp2931
Rp2932
(lp2933
F-0.21590187011153633
aF-0.12260836215940882
aF0.3326148303839788
abag1
(g24
g3
Ntp2934
Rp2935
(lp2936
F0.7379758655515217
aF-0.0011201993984303975
aF-0.6747477299148311
aF0.010289217247803325
abababag1
(g2
g3
Ntp2937
Rp2938
(lp2939
g1
(g7
g3
Ntp2940
Rp2941
(lp2942
I0
ag1
(g11
g3
Ntp2943
Rp2944
(lp2945
I1607448825
aI706701993
abag2927
abag1
(g16
g3
Ntp2946
Rp2947
(lp2948
g1
(g20
g3
Ntp2949
Rp2950
(lp2951
F-0.21590187011153633
aF-0.12260836215940882
aF0.3296148303839788
abag1
(g24
g3
Ntp2952
Rp2953
(lp2954
F0.7379758655515217
aF-0.0011201993984303975
aF-0.6747477299148311
aF0.010289217247803325
abababag1
(g2
g3
Ntp2955
Rp2956
(lp2957
g1
(g7
g3
Ntp2958
Rp2959
(lp2960
I0
ag1
(g11
g3
Ntp2961
Rp2962
(lp2963
I1607448825
aI906651973
abaS'world'
p2964
abag1
(g16
g3
Ntp2965
Rp2966
(lp2967
g1
(g20
g3
Ntp2968
Rp2969
(lp2970
F-0.21282790417726113
aF-0.12289608885069081
aF0.33276280175768136
abag1
(g24
g3
Ntp2971
Rp2972
(lp2973
F0.7373261986985127
aF-0.0014327299148205845
aF-0.67546740497603
aF0.009581691538583794
abababag1
(g2
g3
Ntp2974
Rp2975
(lp2976
g1
(g7
g3
Ntp2977
Rp2978
(lp2979
I0
ag1
(g11
g3
Ntp2980
Rp2981
(lp2982
I1607448825
aI906651973
abag2964
abag1
(g16
g3
Ntp2983
Rp2984
(lp2985
g1
(g20
g3
Ntp2986
Rp2987
(lp2988
F-0.21282790417726113
aF-0.12289608885069081
aF0.32976280175768136
abag1
(g24
g3
Ntp2989
Rp2990
(lp2991
F0.7373261986985127
aF-0.0014327299148205845
aF-0.67546740497603
aF0.009581691538583794
abababag1
(g2
g3
Ntp2992
Rp2993
(lp2994
g1
(g7
g3
Ntp2995
Rp2996
(lp2997
I0
ag1
(g11
g3
Ntp2998
Rp2999
(lp3000
I1607448826
aI194179058
abaS'world'
p3001
abag1
(g16
g3
Ntp3002
Rp3003
(lp3004
g1
(g20
g3
Ntp3005
Rp3006
(lp3007
F-0.2098511606114789
aF-0.12340192225705092
aF0.3329191841315244
abag1
(g24
g3
Ntp3008
Rp3009
(lp3010
F0.7364414545275074
aF0.010171330124809716
aF-0.6761008933594803
aF0.020931079652378577
abababag1
(g2
g3
Ntp3011
Rp3012
(lp3013
g1
(g7
g3
Ntp3014
Rp3015
(lp3016
I0
ag1
(g11
g3
Ntp3017
Rp3018
(lp3019
I1607448826
aI194179058
abag3001
abag1
(g16
g3
Ntp3020
Rp3021
(lp3022
g1
(g20
g3
Ntp3023
Rp3024
(lp3025
F-0.2098511606114789
aF-0.12340192225705092
aF0.3299191841315244
abag1
(g24
g3
Ntp3026
Rp3027
(lp3028
F0.7364414545275074
aF0.010171330124809716
aF-0.6761008933594803
aF0.020931079652378577
abababag1
(g2
g3
Ntp3029
Rp3030
(lp3031
g1
(g7
g3
Ntp3032
Rp3033
(lp3034
I0
ag1
(g11
g3
Ntp3035
Rp3036
(lp3037
I1607448826
aI418567895
abaS'world'
p3038
abag1
(g16
g3
Ntp3039
Rp3040
(lp3041
g1
(g20
g3
Ntp3042
Rp3043
(lp3044
F-0.20677519670753705
aF-0.12317100494106334
aF0.3329986070903013
abag1
(g24
g3
Ntp3045
Rp3046
(lp3047
F0.7353291424305709
aF0.022603919575161176
aF-0.6764591805830629
aF0.03439610613212261
abababag1
(g2
g3
Ntp3048
Rp3049
(lp3050
g1
(g7
g3
Ntp3051
Rp3052
(lp3053
I0
ag1
(g11
g3
Ntp3054
Rp3055
(lp3056
I1607448826
aI418567895
abag3038
abag1
(g16
g3
Ntp3057
Rp3058
(lp3059
g1
(g20
g3
Ntp3060
Rp3061
(lp3062
F-0.20677519670753705
aF-0.12317100494106334
aF0.3299986070903013
abag1
(g24
g3
Ntp3063
Rp3064
(lp3065
F0.7353291424305709
aF0.022603919575161176
aF-0.6764591805830629
aF0.03439610613212261
abababag1
(g2
g3
Ntp3066
Rp3067
(lp3068
g1
(g7
g3
Ntp3069
Rp3070
(lp3071
I0
ag1
(g11
g3
Ntp3072
Rp3073
(lp3074
I1607448826
aI594118118
abaS'world'
p3075
abag1
(g16
g3
Ntp3076
Rp3077
(lp3078
g1
(g20
g3
Ntp3079
Rp3080
(lp3081
F-0.20380612723641553
aF-0.12364034555038372
aF0.3331800202530084
abag1
(g24
g3
Ntp3082
Rp3083
(lp3084
F0.7345228304150105
aF0.022948582870690105
aF-0.6773503673956163
aF0.033853418326258856
abababag1
(g2
g3
Ntp3085
Rp3086
(lp3087
g1
(g7
g3
Ntp3088
Rp3089
(lp3090
I0
ag1
(g11
g3
Ntp3091
Rp3092
(lp3093
I1607448826
aI594118118
abag3075
abag1
(g16
g3
Ntp3094
Rp3095
(lp3096
g1
(g20
g3
Ntp3097
Rp3098
(lp3099
F-0.20380612723641553
aF-0.12364034555038372
aF0.3301800202530084
abag1
(g24
g3
Ntp3100
Rp3101
(lp3102
F0.7345228304150105
aF0.022948582870690105
aF-0.6773503673956163
aF0.033853418326258856
abababag1
(g2
g3
Ntp3103
Rp3104
(lp3105
g1
(g7
g3
Ntp3106
Rp3107
(lp3108
I0
ag1
(g11
g3
Ntp3109
Rp3110
(lp3111
I1607448827
aI42402982
abaS'world'
p3112
abag1
(g16
g3
Ntp3113
Rp3114
(lp3115
g1
(g20
g3
Ntp3116
Rp3117
(lp3118
F-0.2008256464965693
aF-0.12293440848333627
aF0.33315838030302725
abag1
(g24
g3
Ntp3119
Rp3120
(lp3121
F0.7331400060606839
aF0.050103660784598616
aF-0.675233644612983
aF0.06367793866002737
abababag1
(g2
g3
Ntp3122
Rp3123
(lp3124
g1
(g7
g3
Ntp3125
Rp3126
(lp3127
I0
ag1
(g11
g3
Ntp3128
Rp3129
(lp3130
I1607448827
aI42402982
abag3112
abag1
(g16
g3
Ntp3131
Rp3132
(lp3133
g1
(g20
g3
Ntp3134
Rp3135
(lp3136
F-0.2008256464965693
aF-0.12293440848333627
aF0.33015838030302724
abag1
(g24
g3
Ntp3137
Rp3138
(lp3139
F0.7331400060606839
aF0.050103660784598616
aF-0.675233644612983
aF0.06367793866002737
abababag1
(g2
g3
Ntp3140
Rp3141
(lp3142
g1
(g7
g3
Ntp3143
Rp3144
(lp3145
I0
ag1
(g11
g3
Ntp3146
Rp3147
(lp3148
I1607448827
aI281991004
abaS'world'
p3149
abag1
(g16
g3
Ntp3150
Rp3151
(lp3152
g1
(g20
g3
Ntp3153
Rp3154
(lp3155
F-0.1978426006830571
aF-0.12222472968263573
aF0.33320058903292116
abag1
(g24
g3
Ntp3156
Rp3157
(lp3158
F0.7358143830598238
aF0.04834844529546137
aF-0.6724162754557585
aF0.0639997970466179
abababag1
(g2
g3
Ntp3159
Rp3160
(lp3161
g1
(g7
g3
Ntp3162
Rp3163
(lp3164
I0
ag1
(g11
g3
Ntp3165
Rp3166
(lp3167
I1607448827
aI281991004
abag3149
abag1
(g16
g3
Ntp3168
Rp3169
(lp3170
g1
(g20
g3
Ntp3171
Rp3172
(lp3173
F-0.1978426006830571
aF-0.12222472968263573
aF0.33020058903292115
abag1
(g24
g3
Ntp3174
Rp3175
(lp3176
F0.7358143830598238
aF0.04834844529546137
aF-0.6724162754557585
aF0.0639997970466179
abababag1
(g2
g3
Ntp3177
Rp3178
(lp3179
g1
(g7
g3
Ntp3180
Rp3181
(lp3182
I0
ag1
(g11
g3
Ntp3183
Rp3184
(lp3185
I1607448827
aI554431915
abaS'world'
p3186
abag1
(g16
g3
Ntp3187
Rp3188
(lp3189
g1
(g20
g3
Ntp3190
Rp3191
(lp3192
F-0.19498298266627112
aF-0.12125365268137259
aF0.3332598073217592
abag1
(g24
g3
Ntp3193
Rp3194
(lp3195
F0.7346085903335634
aF0.0695494088704087
aF-0.6692236715022551
aF0.0874801476619335
abababag1
(g2
g3
Ntp3196
Rp3197
(lp3198
g1
(g7
g3
Ntp3199
Rp3200
(lp3201
I0
ag1
(g11
g3
Ntp3202
Rp3203
(lp3204
I1607448827
aI554431915
abag3186
abag1
(g16
g3
Ntp3205
Rp3206
(lp3207
g1
(g20
g3
Ntp3208
Rp3209
(lp3210
F-0.19498298266627112
aF-0.12125365268137259
aF0.3302598073217592
abag1
(g24
g3
Ntp3211
Rp3212
(lp3213
F0.7346085903335634
aF0.0695494088704087
aF-0.6692236715022551
aF0.0874801476619335
abababag1
(g2
g3
Ntp3214
Rp3215
(lp3216
g1
(g7
g3
Ntp3217
Rp3218
(lp3219
I0
ag1
(g11
g3
Ntp3220
Rp3221
(lp3222
I1607448827
aI778202056
abaS'world'
p3223
abag1
(g16
g3
Ntp3224
Rp3225
(lp3226
g1
(g20
g3
Ntp3227
Rp3228
(lp3229
F-0.19195760400380957
aF-0.12084579496174266
aF0.33346871360082797
abag1
(g24
g3
Ntp3230
Rp3231
(lp3232
F0.7322185376451534
aF0.08478121647894427
aF-0.6677532974627107
aF0.10379639776418044
abababag1
(g2
g3
Ntp3233
Rp3234
(lp3235
g1
(g7
g3
Ntp3236
Rp3237
(lp3238
I0
ag1
(g11
g3
Ntp3239
Rp3240
(lp3241
I1607448827
aI778202056
abag3223
abag1
(g16
g3
Ntp3242
Rp3243
(lp3244
g1
(g20
g3
Ntp3245
Rp3246
(lp3247
F-0.19195760400380957
aF-0.12084579496174266
aF0.33046871360082797
abag1
(g24
g3
Ntp3248
Rp3249
(lp3250
F0.7322185376451534
aF0.08478121647894427
aF-0.6677532974627107
aF0.10379639776418044
abababag1
(g2
g3
Ntp3251
Rp3252
(lp3253
g1
(g7
g3
Ntp3254
Rp3255
(lp3256
I0
ag1
(g11
g3
Ntp3257
Rp3258
(lp3259
I1607448828
aI10576009
abaS'world'
p3260
abag1
(g16
g3
Ntp3261
Rp3262
(lp3263
g1
(g20
g3
Ntp3264
Rp3265
(lp3266
F-0.18891077076034107
aF-0.12106814602490647
aF0.33359331948850934
abag1
(g24
g3
Ntp3267
Rp3268
(lp3269
F0.7288784291626201
aF0.10495210271574697
aF-0.6654861976936324
aF0.12185816475003433
abababag1
(g2
g3
Ntp3270
Rp3271
(lp3272
g1
(g7
g3
Ntp3273
Rp3274
(lp3275
I0
ag1
(g11
g3
Ntp3276
Rp3277
(lp3278
I1607448828
aI10576009
abag3260
abag1
(g16
g3
Ntp3279
Rp3280
(lp3281
g1
(g20
g3
Ntp3282
Rp3283
(lp3284
F-0.18891077076034107
aF-0.12106814602490647
aF0.33059331948850934
abag1
(g24
g3
Ntp3285
Rp3286
(lp3287
F0.7288784291626201
aF0.10495210271574697
aF-0.6654861976936324
aF0.12185816475003433
abababag1
(g2
g3
Ntp3288
Rp3289
(lp3290
g1
(g7
g3
Ntp3291
Rp3292
(lp3293
I0
ag1
(g11
g3
Ntp3294
Rp3295
(lp3296
I1607448828
aI218405961
abaS'world'
p3297
abag1
(g16
g3
Ntp3298
Rp3299
(lp3300
g1
(g20
g3
Ntp3301
Rp3302
(lp3303
F-0.18587453750820862
aF-0.12106556522569614
aF0.3337096869746514
abag1
(g24
g3
Ntp3304
Rp3305
(lp3306
F0.7256395341411149
aF0.12168153758086186
aF-0.6632743382923856
aF0.13677727174578885
abababag1
(g2
g3
Ntp3307
Rp3308
(lp3309
g1
(g7
g3
Ntp3310
Rp3311
(lp3312
I0
ag1
(g11
g3
Ntp3313
Rp3314
(lp3315
I1607448828
aI218405961
abag3297
abag1
(g16
g3
Ntp3316
Rp3317
(lp3318
g1
(g20
g3
Ntp3319
Rp3320
(lp3321
F-0.18587453750820862
aF-0.12106556522569614
aF0.3307096869746514
abag1
(g24
g3
Ntp3322
Rp3323
(lp3324
F0.7256395341411149
aF0.12168153758086186
aF-0.6632743382923856
aF0.13677727174578885
abababag1
(g2
g3
Ntp3325
Rp3326
(lp3327
g1
(g7
g3
Ntp3328
Rp3329
(lp3330
I0
ag1
(g11
g3
Ntp3331
Rp3332
(lp3333
I1607448828
aI578819036
abaS'world'
p3334
abag1
(g16
g3
Ntp3335
Rp3336
(lp3337
g1
(g20
g3
Ntp3338
Rp3339
(lp3340
F-0.18285429656727217
aF-0.12094432527014269
aF0.33373566901263246
abag1
(g24
g3
Ntp3341
Rp3342
(lp3343
F0.7195026646875234
aF0.14969232949885525
aF-0.6580322879391224
aF0.1640171638163625
abababag1
(g2
g3
Ntp3344
Rp3345
(lp3346
g1
(g7
g3
Ntp3347
Rp3348
(lp3349
I0
ag1
(g11
g3
Ntp3350
Rp3351
(lp3352
I1607448828
aI578819036
abag3334
abag1
(g16
g3
Ntp3353
Rp3354
(lp3355
g1
(g20
g3
Ntp3356
Rp3357
(lp3358
F-0.18285429656727217
aF-0.12094432527014269
aF0.33073566901263246
abag1
(g24
g3
Ntp3359
Rp3360
(lp3361
F0.7195026646875234
aF0.14969232949885525
aF-0.6580322879391224
aF0.1640171638163625
abababag1
(g2
g3
Ntp3362
Rp3363
(lp3364
g1
(g7
g3
Ntp3365
Rp3366
(lp3367
I0
ag1
(g11
g3
Ntp3368
Rp3369
(lp3370
I1607448828
aI970531940
abaS'world'
p3371
abag1
(g16
g3
Ntp3372
Rp3373
(lp3374
g1
(g20
g3
Ntp3375
Rp3376
(lp3377
F-0.1799853721914033
aF-0.11980491137272273
aF0.33381406959894244
abag1
(g24
g3
Ntp3378
Rp3379
(lp3380
F0.7120664569234159
aF0.17643465481359688
aF-0.6518555010343487
aF0.19213687641001712
abababag1
(g2
g3
Ntp3381
Rp3382
(lp3383
g1
(g7
g3
Ntp3384
Rp3385
(lp3386
I0
ag1
(g11
g3
Ntp3387
Rp3388
(lp3389
I1607448828
aI970531940
abag3371
abag1
(g16
g3
Ntp3390
Rp3391
(lp3392
g1
(g20
g3
Ntp3393
Rp3394
(lp3395
F-0.1799853721914033
aF-0.11980491137272273
aF0.33081406959894244
abag1
(g24
g3
Ntp3396
Rp3397
(lp3398
F0.7120664569234159
aF0.17643465481359688
aF-0.6518555010343487
aF0.19213687641001712
abababag1
(g2
g3
Ntp3399
Rp3400
(lp3401
g1
(g7
g3
Ntp3402
Rp3403
(lp3404
I0
ag1
(g11
g3
Ntp3405
Rp3406
(lp3407
I1607448829
aI250232934
abaS'world'
p3408
abag1
(g16
g3
Ntp3409
Rp3410
(lp3411
g1
(g20
g3
Ntp3412
Rp3413
(lp3414
F-0.1770550902099143
aF-0.11892784727452578
aF0.3339283672059056
abag1
(g24
g3
Ntp3415
Rp3416
(lp3417
F0.707248086202324
aF0.1924271033787247
aF-0.6478596636051067
aF0.2074844830870537
abababag1
(g2
g3
Ntp3418
Rp3419
(lp3420
g1
(g7
g3
Ntp3421
Rp3422
(lp3423
I0
ag1
(g11
g3
Ntp3424
Rp3425
(lp3426
I1607448829
aI250232934
abag3408
abag1
(g16
g3
Ntp3427
Rp3428
(lp3429
g1
(g20
g3
Ntp3430
Rp3431
(lp3432
F-0.1770550902099143
aF-0.11892784727452578
aF0.33092836720590557
abag1
(g24
g3
Ntp3433
Rp3434
(lp3435
F0.707248086202324
aF0.1924271033787247
aF-0.6478596636051067
aF0.2074844830870537
abababag1
(g2
g3
Ntp3436
Rp3437
(lp3438
g1
(g7
g3
Ntp3439
Rp3440
(lp3441
I0
ag1
(g11
g3
Ntp3442
Rp3443
(lp3444
I1607448829
aI522097110
abaS'world'
p3445
abag1
(g16
g3
Ntp3446
Rp3447
(lp3448
g1
(g20
g3
Ntp3449
Rp3450
(lp3451
F-0.17424909949137415
aF-0.1176707181934426
aF0.3340633689518705
abag1
(g24
g3
Ntp3452
Rp3453
(lp3454
F0.7023296530775011
aF0.20733725080462867
aF-0.6436862781903051
aF0.22228877188542145
abababag1
(g2
g3
Ntp3455
Rp3456
(lp3457
g1
(g7
g3
Ntp3458
Rp3459
(lp3460
I0
ag1
(g11
g3
Ntp3461
Rp3462
(lp3463
I1607448829
aI522097110
abag3445
abag1
(g16
g3
Ntp3464
Rp3465
(lp3466
g1
(g20
g3
Ntp3467
Rp3468
(lp3469
F-0.17424909949137415
aF-0.1176707181934426
aF0.3310633689518705
abag1
(g24
g3
Ntp3470
Rp3471
(lp3472
F0.7023296530775011
aF0.20733725080462867
aF-0.6436862781903051
aF0.22228877188542145
abababag1
(g2
g3
Ntp3473
Rp3474
(lp3475
g1
(g7
g3
Ntp3476
Rp3477
(lp3478
I0
ag1
(g11
g3
Ntp3479
Rp3480
(lp3481
I1607448829
aI746365070
abaS'world'
p3482
abag1
(g16
g3
Ntp3483
Rp3484
(lp3485
g1
(g20
g3
Ntp3486
Rp3487
(lp3488
F-0.17134042214944492
aF-0.11657356518377474
aF0.33409490199039876
abag1
(g24
g3
Ntp3489
Rp3490
(lp3491
F0.6982190356794266
aF0.22218531201619007
aF-0.6385919742970778
aF0.2352108749665303
abababag1
(g2
g3
Ntp3492
Rp3493
(lp3494
g1
(g7
g3
Ntp3495
Rp3496
(lp3497
I0
ag1
(g11
g3
Ntp3498
Rp3499
(lp3500
I1607448829
aI746365070
abag3482
abag1
(g16
g3
Ntp3501
Rp3502
(lp3503
g1
(g20
g3
Ntp3504
Rp3505
(lp3506
F-0.17134042214944492
aF-0.11657356518377474
aF0.33109490199039876
abag1
(g24
g3
Ntp3507
Rp3508
(lp3509
F0.6982190356794266
aF0.22218531201619007
aF-0.6385919742970778
aF0.2352108749665303
abababag1
(g2
g3
Ntp3510
Rp3511
(lp3512
g1
(g7
g3
Ntp3513
Rp3514
(lp3515
I0
ag1
(g11
g3
Ntp3516
Rp3517
(lp3518
I1607448830
aI90365886
abaS'world'
p3519
abag1
(g16
g3
Ntp3520
Rp3521
(lp3522
g1
(g20
g3
Ntp3523
Rp3524
(lp3525
F-0.16887276948103636
aF-0.11482132472701664
aF0.33410276425619573
abag1
(g24
g3
Ntp3526
Rp3527
(lp3528
F0.690383414718261
aF0.24404350471011851
aF-0.6303475113918788
aF0.25782847665225317
abababag1
(g2
g3
Ntp3529
Rp3530
(lp3531
g1
(g7
g3
Ntp3532
Rp3533
(lp3534
I0
ag1
(g11
g3
Ntp3535
Rp3536
(lp3537
I1607448830
aI90365886
abag3519
abag1
(g16
g3
Ntp3538
Rp3539
(lp3540
g1
(g20
g3
Ntp3541
Rp3542
(lp3543
F-0.16887276948103636
aF-0.11482132472701664
aF0.3311027642561957
abag1
(g24
g3
Ntp3544
Rp3545
(lp3546
F0.690383414718261
aF0.24404350471011851
aF-0.6303475113918788
aF0.25782847665225317
abababag1
(g2
g3
Ntp3547
Rp3548
(lp3549
g1
(g7
g3
Ntp3550
Rp3551
(lp3552
I0
ag1
(g11
g3
Ntp3553
Rp3554
(lp3555
I1607448830
aI338141918
abaS'world'
p3556
abag1
(g16
g3
Ntp3557
Rp3558
(lp3559
g1
(g20
g3
Ntp3560
Rp3561
(lp3562
F-0.16659066973739994
aF-0.1128239840369539
aF0.33419657961653837
abag1
(g24
g3
Ntp3563
Rp3564
(lp3565
F0.6812598887644568
aF0.26594920974174496
aF-0.6213144309419056
aF0.2812905254389446
abababag1
(g2
g3
Ntp3566
Rp3567
(lp3568
g1
(g7
g3
Ntp3569
Rp3570
(lp3571
I0
ag1
(g11
g3
Ntp3572
Rp3573
(lp3574
I1607448830
aI338141918
abag3556
abag1
(g16
g3
Ntp3575
Rp3576
(lp3577
g1
(g20
g3
Ntp3578
Rp3579
(lp3580
F-0.16659066973739994
aF-0.1128239840369539
aF0.33119657961653837
abag1
(g24
g3
Ntp3581
Rp3582
(lp3583
F0.6812598887644568
aF0.26594920974174496
aF-0.6213144309419056
aF0.2812905254389446
abababag1
(g2
g3
Ntp3584
Rp3585
(lp3586
g1
(g7
g3
Ntp3587
Rp3588
(lp3589
I0
ag1
(g11
g3
Ntp3590
Rp3591
(lp3592
I1607448830
aI658090114
abaS'world'
p3593
abag1
(g16
g3
Ntp3594
Rp3595
(lp3596
g1
(g20
g3
Ntp3597
Rp3598
(lp3599
F-0.16434658641004182
aF-0.11073522431810814
aF0.3342903633428705
abag1
(g24
g3
Ntp3600
Rp3601
(lp3602
F0.671744896660502
aF0.2868766809135086
aF-0.6117597288081168
aF0.30366197978548465
abababag1
(g2
g3
Ntp3603
Rp3604
(lp3605
g1
(g7
g3
Ntp3606
Rp3607
(lp3608
I0
ag1
(g11
g3
Ntp3609
Rp3610
(lp3611
I1607448830
aI658090114
abag3593
abag1
(g16
g3
Ntp3612
Rp3613
(lp3614
g1
(g20
g3
Ntp3615
Rp3616
(lp3617
F-0.16434658641004182
aF-0.11073522431810814
aF0.3312903633428705
abag1
(g24
g3
Ntp3618
Rp3619
(lp3620
F0.671744896660502
aF0.2868766809135086
aF-0.6117597288081168
aF0.30366197978548465
abababag1
(g2
g3
Ntp3621
Rp3622
(lp3623
g1
(g7
g3
Ntp3624
Rp3625
(lp3626
I0
ag1
(g11
g3
Ntp3627
Rp3628
(lp3629
I1607448831
aI50214052
abaS'world'
p3630
abag1
(g16
g3
Ntp3631
Rp3632
(lp3633
g1
(g20
g3
Ntp3634
Rp3635
(lp3636
F-0.16209690601551788
aF-0.10870482101463858
aF0.33448276791958287
abag1
(g24
g3
Ntp3637
Rp3638
(lp3639
F0.655647361555429
aF0.3181420957336139
aF-0.5960556227031253
aF0.3370902532729454
abababag1
(g2
g3
Ntp3640
Rp3641
(lp3642
g1
(g7
g3
Ntp3643
Rp3644
(lp3645
I0
ag1
(g11
g3
Ntp3646
Rp3647
(lp3648
I1607448831
aI50214052
abag3630
abag1
(g16
g3
Ntp3649
Rp3650
(lp3651
g1
(g20
g3
Ntp3652
Rp3653
(lp3654
F-0.16209690601551788
aF-0.10870482101463858
aF0.33148276791958287
abag1
(g24
g3
Ntp3655
Rp3656
(lp3657
F0.655647361555429
aF0.3181420957336139
aF-0.5960556227031253
aF0.3370902532729454
abababag1
(g2
g3
Ntp3658
Rp3659
(lp3660
g1
(g7
g3
Ntp3661
Rp3662
(lp3663
I0
ag1
(g11
g3
Ntp3664
Rp3665
(lp3666
I1607448831
aI362415075
abaS'world'
p3667
abag1
(g16
g3
Ntp3668
Rp3669
(lp3670
g1
(g20
g3
Ntp3671
Rp3672
(lp3673
F-0.159845574912708
aF-0.1066266376134555
aF0.3346164217549083
abag1
(g24
g3
Ntp3674
Rp3675
(lp3676
F0.6413762226529245
aF0.3438376484539607
aF-0.5813609634764015
aF0.3639115863323223
abababag1
(g2
g3
Ntp3677
Rp3678
(lp3679
g1
(g7
g3
Ntp3680
Rp3681
(lp3682
I0
ag1
(g11
g3
Ntp3683
Rp3684
(lp3685
I1607448831
aI362415075
abag3667
abag1
(g16
g3
Ntp3686
Rp3687
(lp3688
g1
(g20
g3
Ntp3689
Rp3690
(lp3691
F-0.159845574912708
aF-0.1066266376134555
aF0.3316164217549083
abag1
(g24
g3
Ntp3692
Rp3693
(lp3694
F0.6413762226529245
aF0.3438376484539607
aF-0.5813609634764015
aF0.3639115863323223
abababag1
(g2
g3
Ntp3695
Rp3696
(lp3697
g1
(g7
g3
Ntp3698
Rp3699
(lp3700
I0
ag1
(g11
g3
Ntp3701
Rp3702
(lp3703
I1607448831
aI657891988
abaS'world'
p3704
abag1
(g16
g3
Ntp3705
Rp3706
(lp3707
g1
(g20
g3
Ntp3708
Rp3709
(lp3710
F-0.15769837345424348
aF-0.10450123640426488
aF0.33479661977504216
abag1
(g24
g3
Ntp3711
Rp3712
(lp3713
F0.62859507016437
aF0.3636688961341773
aF-0.5701412921903517
aF0.38412508208800455
abababag1
(g2
g3
Ntp3714
Rp3715
(lp3716
g1
(g7
g3
Ntp3717
Rp3718
(lp3719
I0
ag1
(g11
g3
Ntp3720
Rp3721
(lp3722
I1607448831
aI657891988
abag3704
abag1
(g16
g3
Ntp3723
Rp3724
(lp3725
g1
(g20
g3
Ntp3726
Rp3727
(lp3728
F-0.15769837345424348
aF-0.10450123640426488
aF0.33179661977504216
abag1
(g24
g3
Ntp3729
Rp3730
(lp3731
F0.62859507016437
aF0.3636688961341773
aF-0.5701412921903517
aF0.38412508208800455
abababag1
(g2
g3
Ntp3732
Rp3733
(lp3734
g1
(g7
g3
Ntp3735
Rp3736
(lp3737
I0
ag1
(g11
g3
Ntp3738
Rp3739
(lp3740
I1607448831
aI930143117
abaS'world'
p3741
abag1
(g16
g3
Ntp3742
Rp3743
(lp3744
g1
(g20
g3
Ntp3745
Rp3746
(lp3747
F-0.155545934579223
aF-0.1023888240886482
aF0.3348997437179911
abag1
(g24
g3
Ntp3748
Rp3749
(lp3750
F0.6159490917227559
aF0.381404456297006
aF-0.5600317412564714
aF0.40187287281918194
abababag1
(g2
g3
Ntp3751
Rp3752
(lp3753
g1
(g7
g3
Ntp3754
Rp3755
(lp3756
I0
ag1
(g11
g3
Ntp3757
Rp3758
(lp3759
I1607448831
aI930143117
abag3741
abag1
(g16
g3
Ntp3760
Rp3761
(lp3762
g1
(g20
g3
Ntp3763
Rp3764
(lp3765
F-0.155545934579223
aF-0.1023888240886482
aF0.3318997437179911
abag1
(g24
g3
Ntp3766
Rp3767
(lp3768
F0.6159490917227559
aF0.381404456297006
aF-0.5600317412564714
aF0.40187287281918194
abababag1
(g2
g3
Ntp3769
Rp3770
(lp3771
g1
(g7
g3
Ntp3772
Rp3773
(lp3774
I0
ag1
(g11
g3
Ntp3775
Rp3776
(lp3777
I1607448832
aI322350978
abaS'world'
p3778
abag1
(g16
g3
Ntp3779
Rp3780
(lp3781
g1
(g20
g3
Ntp3782
Rp3783
(lp3784
F-0.1533435703616315
aF-0.10028552982802622
aF0.33497797945526264
abag1
(g24
g3
Ntp3785
Rp3786
(lp3787
F0.5980300873430773
aF0.4050429788626949
aF-0.5447389948114087
aF0.42609814296511805
abababag1
(g2
g3
Ntp3788
Rp3789
(lp3790
g1
(g7
g3
Ntp3791
Rp3792
(lp3793
I0
ag1
(g11
g3
Ntp3794
Rp3795
(lp3796
I1607448832
aI322350978
abag3778
abag1
(g16
g3
Ntp3797
Rp3798
(lp3799
g1
(g20
g3
Ntp3800
Rp3801
(lp3802
F-0.1533435703616315
aF-0.10028552982802622
aF0.33197797945526264
abag1
(g24
g3
Ntp3803
Rp3804
(lp3805
F0.5980300873430773
aF0.4050429788626949
aF-0.5447389948114087
aF0.42609814296511805
abababag1
(g2
g3
Ntp3806
Rp3807
(lp3808
g1
(g7
g3
Ntp3809
Rp3810
(lp3811
I0
ag1
(g11
g3
Ntp3812
Rp3813
(lp3814
I1607448832
aI625960111
abaS'world'
p3815
abag1
(g16
g3
Ntp3816
Rp3817
(lp3818
g1
(g20
g3
Ntp3819
Rp3820
(lp3821
F-0.1511141606494994
aF-0.09817149106541473
aF0.33514590830961
abag1
(g24
g3
Ntp3822
Rp3823
(lp3824
F0.5927115842561806
aF0.4116696237841301
aF-0.5414040462208276
aF0.43139628820572556
abababag1
(g2
g3
Ntp3825
Rp3826
(lp3827
g1
(g7
g3
Ntp3828
Rp3829
(lp3830
I0
ag1
(g11
g3
Ntp3831
Rp3832
(lp3833
I1607448832
aI625960111
abag3815
abag1
(g16
g3
Ntp3834
Rp3835
(lp3836
g1
(g20
g3
Ntp3837
Rp3838
(lp3839
F-0.1511141606494994
aF-0.09817149106541473
aF0.33214590830961
abag1
(g24
g3
Ntp3840
Rp3841
(lp3842
F0.5927115842561806
aF0.4116696237841301
aF-0.5414040462208276
aF0.43139628820572556
abababag1
(g2
g3
Ntp3843
Rp3844
(lp3845
g1
(g7
g3
Ntp3846
Rp3847
(lp3848
I0
ag1
(g11
g3
Ntp3849
Rp3850
(lp3851
I1607448833
aI58187961
abaS'world'
p3852
abag1
(g16
g3
Ntp3853
Rp3854
(lp3855
g1
(g20
g3
Ntp3856
Rp3857
(lp3858
F-0.14899320111559997
aF-0.09604909841499512
aF0.33530072659341315
abag1
(g24
g3
Ntp3859
Rp3860
(lp3861
F0.5775915246010397
aF0.4302951483194052
aF-0.5291874319052025
aF0.44854740881584027
abababag1
(g2
g3
Ntp3862
Rp3863
(lp3864
g1
(g7
g3
Ntp3865
Rp3866
(lp3867
I0
ag1
(g11
g3
Ntp3868
Rp3869
(lp3870
I1607448833
aI58187961
abag3852
abag1
(g16
g3
Ntp3871
Rp3872
(lp3873
g1
(g20
g3
Ntp3874
Rp3875
(lp3876
F-0.14899320111559997
aF-0.09604909841499512
aF0.33230072659341314
abag1
(g24
g3
Ntp3877
Rp3878
(lp3879
F0.5775915246010397
aF0.4302951483194052
aF-0.5291874319052025
aF0.44854740881584027
abababag1
(g2
g3
Ntp3880
Rp3881
(lp3882
g1
(g7
g3
Ntp3883
Rp3884
(lp3885
I0
ag1
(g11
g3
Ntp3886
Rp3887
(lp3888
I1607448833
aI322200059
abaS'world'
p3889
abag1
(g16
g3
Ntp3890
Rp3891
(lp3892
g1
(g20
g3
Ntp3893
Rp3894
(lp3895
F-0.1468686805781302
aF-0.09391171717774498
aF0.3354113494886707
abag1
(g24
g3
Ntp3896
Rp3897
(lp3898
F0.566784269699505
aF0.44335210923315366
aF-0.5208802716558804
aF0.4592148097126324
abababag1
(g2
g3
Ntp3899
Rp3900
(lp3901
g1
(g7
g3
Ntp3902
Rp3903
(lp3904
I0
ag1
(g11
g3
Ntp3905
Rp3906
(lp3907
I1607448833
aI322200059
abag3889
abag1
(g16
g3
Ntp3908
Rp3909
(lp3910
g1
(g20
g3
Ntp3911
Rp3912
(lp3913
F-0.1468686805781302
aF-0.09391171717774498
aF0.3324113494886707
abag1
(g24
g3
Ntp3914
Rp3915
(lp3916
F0.566784269699505
aF0.44335210923315366
aF-0.5208802716558804
aF0.4592148097126324
abababag1
(g2
g3
Ntp3917
Rp3918
(lp3919
g1
(g7
g3
Ntp3920
Rp3921
(lp3922
I0
ag1
(g11
g3
Ntp3923
Rp3924
(lp3925
I1607448833
aI818176031
abaS'world'
p3926
abag1
(g16
g3
Ntp3927
Rp3928
(lp3929
g1
(g20
g3
Ntp3930
Rp3931
(lp3932
F-0.14512199595284161
aF-0.09146463143668865
aF0.335402322766164
abag1
(g24
g3
Ntp3933
Rp3934
(lp3935
F0.5572313282159471
aF0.45435659056991795
aF-0.5135623867572613
aF0.4683022638943326
abababag1
(g2
g3
Ntp3936
Rp3937
(lp3938
g1
(g7
g3
Ntp3939
Rp3940
(lp3941
I0
ag1
(g11
g3
Ntp3942
Rp3943
(lp3944
I1607448833
aI818176031
abag3926
abag1
(g16
g3
Ntp3945
Rp3946
(lp3947
g1
(g20
g3
Ntp3948
Rp3949
(lp3950
F-0.14512199595284161
aF-0.09146463143668865
aF0.332402322766164
abag1
(g24
g3
Ntp3951
Rp3952
(lp3953
F0.5572313282159471
aF0.45435659056991795
aF-0.5135623867572613
aF0.4683022638943326
abababag1
(g2
g3
Ntp3954
Rp3955
(lp3956
g1
(g7
g3
Ntp3957
Rp3958
(lp3959
I0
ag1
(g11
g3
Ntp3960
Rp3961
(lp3962
I1607448837
aI842057943
abaS'world'
p3963
abag1
(g16
g3
Ntp3964
Rp3965
(lp3966
g1
(g20
g3
Ntp3967
Rp3968
(lp3969
F-0.14321709896348617
aF-0.08913541659042752
aF0.33548136429549197
abag1
(g24
g3
Ntp3970
Rp3971
(lp3972
F0.5322628453089276
aF0.4767553171441756
aF-0.4972939118924404
aF0.49203597050735554
abababag1
(g2
g3
Ntp3973
Rp3974
(lp3975
g1
(g7
g3
Ntp3976
Rp3977
(lp3978
I0
ag1
(g11
g3
Ntp3979
Rp3980
(lp3981
I1607448837
aI842057943
abag3963
abag1
(g16
g3
Ntp3982
Rp3983
(lp3984
g1
(g20
g3
Ntp3985
Rp3986
(lp3987
F-0.14321709896348617
aF-0.08913541659042752
aF0.33248136429549197
abag1
(g24
g3
Ntp3988
Rp3989
(lp3990
F0.5322628453089276
aF0.4767553171441756
aF-0.4972939118924404
aF0.49203597050735554
abababag1
(g2
g3
Ntp3991
Rp3992
(lp3993
g1
(g7
g3
Ntp3994
Rp3995
(lp3996
I0
ag1
(g11
g3
Ntp3997
Rp3998
(lp3999
I1607448838
aI465890884
abaS'world'
p4000
abag1
(g16
g3
Ntp4001
Rp4002
(lp4003
g1
(g20
g3
Ntp4004
Rp4005
(lp4006
F-0.14306150211745794
aF-0.0861345462524629
aF0.33557661428921925
abag1
(g24
g3
Ntp4007
Rp4008
(lp4009
F0.5333401236333573
aF0.47429541781427137
aF-0.4997028370310539
aF0.4908046901021396
abababag1
(g2
g3
Ntp4010
Rp4011
(lp4012
g1
(g7
g3
Ntp4013
Rp4014
(lp4015
I0
ag1
(g11
g3
Ntp4016
Rp4017
(lp4018
I1607448838
aI465890884
abag4000
abag1
(g16
g3
Ntp4019
Rp4020
(lp4021
g1
(g20
g3
Ntp4022
Rp4023
(lp4024
F-0.14306150211745794
aF-0.0861345462524629
aF0.33257661428921925
abag1
(g24
g3
Ntp4025
Rp4026
(lp4027
F0.5333401236333573
aF0.47429541781427137
aF-0.4997028370310539
aF0.4908046901021396
abababag1
(g2
g3
Ntp4028
Rp4029
(lp4030
g1
(g7
g3
Ntp4031
Rp4032
(lp4033
I0
ag1
(g11
g3
Ntp4034
Rp4035
(lp4036
I1607448838
aI650167942
abaS'world'
p4037
abag1
(g16
g3
Ntp4038
Rp4039
(lp4040
g1
(g20
g3
Ntp4041
Rp4042
(lp4043
F-0.1435744421126186
aF-0.08306988225947358
aF0.3355657830232972
abag1
(g24
g3
Ntp4044
Rp4045
(lp4046
F0.5293712371516128
aF0.47716905267493975
aF-0.49541154052075115
aF0.49663184952712
abababag1
(g2
g3
Ntp4047
Rp4048
(lp4049
g1
(g7
g3
Ntp4050
Rp4051
(lp4052
I0
ag1
(g11
g3
Ntp4053
Rp4054
(lp4055
I1607448838
aI650167942
abag4037
abag1
(g16
g3
Ntp4056
Rp4057
(lp4058
g1
(g20
g3
Ntp4059
Rp4060
(lp4061
F-0.1435744421126186
aF-0.08306988225947358
aF0.3325657830232972
abag1
(g24
g3
Ntp4062
Rp4063
(lp4064
F0.5293712371516128
aF0.47716905267493975
aF-0.49541154052075115
aF0.49663184952712
abababag1
(g2
g3
Ntp4065
Rp4066
(lp4067
g1
(g7
g3
Ntp4068
Rp4069
(lp4070
I0
ag1
(g11
g3
Ntp4071
Rp4072
(lp4073
I1607448838
aI873739957
abaS'world'
p4074
abag1
(g16
g3
Ntp4075
Rp4076
(lp4077
g1
(g20
g3
Ntp4078
Rp4079
(lp4080
F-0.14228028250453828
aF-0.08030704180837409
aF0.33565261397976376
abag1
(g24
g3
Ntp4081
Rp4082
(lp4083
F0.520488637730169
aF0.48384547752936075
aF-0.4906330556853416
aF0.5042463054272616
abababag1
(g2
g3
Ntp4084
Rp4085
(lp4086
g1
(g7
g3
Ntp4087
Rp4088
(lp4089
I0
ag1
(g11
g3
Ntp4090
Rp4091
(lp4092
I1607448838
aI873739957
abag4074
abag1
(g16
g3
Ntp4093
Rp4094
(lp4095
g1
(g20
g3
Ntp4096
Rp4097
(lp4098
F-0.14228028250453828
aF-0.08030704180837409
aF0.33265261397976376
abag1
(g24
g3
Ntp4099
Rp4100
(lp4101
F0.520488637730169
aF0.48384547752936075
aF-0.4906330556853416
aF0.5042463054272616
abababag1
(g2
g3
Ntp4102
Rp4103
(lp4104
g1
(g7
g3
Ntp4105
Rp4106
(lp4107
I0
ag1
(g11
g3
Ntp4108
Rp4109
(lp4110
I1607448839
aI137520074
abaS'world'
p4111
abag1
(g16
g3
Ntp4112
Rp4113
(lp4114
g1
(g20
g3
Ntp4115
Rp4116
(lp4117
F-0.14079362684430413
aF-0.0776620994081443
aF0.33568272479868055
abag1
(g24
g3
Ntp4118
Rp4119
(lp4120
F0.5207265081589005
aF0.48130134417643694
aF-0.4964788330219869
aF0.5007011964792175
abababag1
(g2
g3
Ntp4121
Rp4122
(lp4123
g1
(g7
g3
Ntp4124
Rp4125
(lp4126
I0
ag1
(g11
g3
Ntp4127
Rp4128
(lp4129
I1607448839
aI137520074
abag4111
abag1
(g16
g3
Ntp4130
Rp4131
(lp4132
g1
(g20
g3
Ntp4133
Rp4134
(lp4135
F-0.14079362684430413
aF-0.0776620994081443
aF0.33268272479868055
abag1
(g24
g3
Ntp4136
Rp4137
(lp4138
F0.5207265081589005
aF0.48130134417643694
aF-0.4964788330219869
aF0.5007011964792175
abababag1
(g2
g3
Ntp4139
Rp4140
(lp4141
g1
(g7
g3
Ntp4142
Rp4143
(lp4144
I0
ag1
(g11
g3
Ntp4145
Rp4146
(lp4147
I1607448839
aI409818887
abaS'world'
p4148
abag1
(g16
g3
Ntp4149
Rp4150
(lp4151
g1
(g20
g3
Ntp4152
Rp4153
(lp4154
F-0.1411753516494243
aF-0.0746711681246663
aF0.33574615880451286
abag1
(g24
g3
Ntp4155
Rp4156
(lp4157
F0.5232589997397781
aF0.4780383017959267
aF-0.49880335567088957
aF0.49887334422561946
abababag1
(g2
g3
Ntp4158
Rp4159
(lp4160
g1
(g7
g3
Ntp4161
Rp4162
(lp4163
I0
ag1
(g11
g3
Ntp4164
Rp4165
(lp4166
I1607448839
aI409818887
abag4148
abag1
(g16
g3
Ntp4167
Rp4168
(lp4169
g1
(g20
g3
Ntp4170
Rp4171
(lp4172
F-0.1411753516494243
aF-0.0746711681246663
aF0.33274615880451286
abag1
(g24
g3
Ntp4173
Rp4174
(lp4175
F0.5232589997397781
aF0.4780383017959267
aF-0.49880335567088957
aF0.49887334422561946
abababag1
(g2
g3
Ntp4176
Rp4177
(lp4178
g1
(g7
g3
Ntp4179
Rp4180
(lp4181
I0
ag1
(g11
g3
Ntp4182
Rp4183
(lp4184
I1607448839
aI641891956
abaS'world'
p4185
abag1
(g16
g3
Ntp4186
Rp4187
(lp4188
g1
(g20
g3
Ntp4189
Rp4190
(lp4191
F-0.14080743329991285
aF-0.07163712031832738
aF0.33573950850765666
abag1
(g24
g3
Ntp4192
Rp4193
(lp4194
F0.5251224882002743
aF0.4762497866514498
aF-0.501102173187739
aF0.49631554995519456
abababag1
(g2
g3
Ntp4195
Rp4196
(lp4197
g1
(g7
g3
Ntp4198
Rp4199
(lp4200
I0
ag1
(g11
g3
Ntp4201
Rp4202
(lp4203
I1607448839
aI641891956
abag4185
abag1
(g16
g3
Ntp4204
Rp4205
(lp4206
g1
(g20
g3
Ntp4207
Rp4208
(lp4209
F-0.14080743329991285
aF-0.07163712031832738
aF0.33273950850765666
abag1
(g24
g3
Ntp4210
Rp4211
(lp4212
F0.5251224882002743
aF0.4762497866514498
aF-0.501102173187739
aF0.49631554995519456
abababag1
(g2
g3
Ntp4213
Rp4214
(lp4215
g1
(g7
g3
Ntp4216
Rp4217
(lp4218
I0
ag1
(g11
g3
Ntp4219
Rp4220
(lp4221
I1607448840
aI9718894
abaS'world'
p4222
abag1
(g16
g3
Ntp4223
Rp4224
(lp4225
g1
(g20
g3
Ntp4226
Rp4227
(lp4228
F-0.13998246654083324
aF-0.06875101658858233
aF0.33571900741307403
abag1
(g24
g3
Ntp4229
Rp4230
(lp4231
F0.5105020290076143
aF0.4910643681848957
aF-0.4877124026424109
aF0.5102745114024857
abababag1
(g2
g3
Ntp4232
Rp4233
(lp4234
g1
(g7
g3
Ntp4235
Rp4236
(lp4237
I0
ag1
(g11
g3
Ntp4238
Rp4239
(lp4240
I1607448840
aI9718894
abag4222
abag1
(g16
g3
Ntp4241
Rp4242
(lp4243
g1
(g20
g3
Ntp4244
Rp4245
(lp4246
F-0.13998246654083324
aF-0.06875101658858233
aF0.33271900741307403
abag1
(g24
g3
Ntp4247
Rp4248
(lp4249
F0.5105020290076143
aF0.4910643681848957
aF-0.4877124026424109
aF0.5102745114024857
abababag1
(g2
g3
Ntp4250
Rp4251
(lp4252
g1
(g7
g3
Ntp4253
Rp4254
(lp4255
I0
ag1
(g11
g3
Ntp4256
Rp4257
(lp4258
I1607448840
aI121803045
abaS'world'
p4259
abag1
(g16
g3
Ntp4260
Rp4261
(lp4262
g1
(g20
g3
Ntp4263
Rp4264
(lp4265
F-0.14138780548454546
aF-0.0659144577611886
aF0.3355997933119116
abag1
(g24
g3
Ntp4266
Rp4267
(lp4268
F0.5123758089558536
aF0.48836913468163234
aF-0.48897082378758117
aF0.509778532474292
abababag1
(g2
g3
Ntp4269
Rp4270
(lp4271
g1
(g7
g3
Ntp4272
Rp4273
(lp4274
I0
ag1
(g11
g3
Ntp4275
Rp4276
(lp4277
I1607448840
aI121803045
abag4259
abag1
(g16
g3
Ntp4278
Rp4279
(lp4280
g1
(g20
g3
Ntp4281
Rp4282
(lp4283
F-0.14138780548454546
aF-0.0659144577611886
aF0.3325997933119116
abag1
(g24
g3
Ntp4284
Rp4285
(lp4286
F0.5123758089558536
aF0.48836913468163234
aF-0.48897082378758117
aF0.509778532474292
abababag1
(g2
g3
Ntp4287
Rp4288
(lp4289
g1
(g7
g3
Ntp4290
Rp4291
(lp4292
I0
ag1
(g11
g3
Ntp4293
Rp4294
(lp4295
I1607448840
aI209604024
abaS'world'
p4296
abag1
(g16
g3
Ntp4297
Rp4298
(lp4299
g1
(g20
g3
Ntp4300
Rp4301
(lp4302
F-0.1421374537327831
aF-0.06282869414487295
aF0.3355900238738454
abag1
(g24
g3
Ntp4303
Rp4304
(lp4305
F0.5141671042096274
aF0.48606481757837555
aF-0.4900618141412788
aF0.5091292570475063
abababag1
(g2
g3
Ntp4306
Rp4307
(lp4308
g1
(g7
g3
Ntp4309
Rp4310
(lp4311
I0
ag1
(g11
g3
Ntp4312
Rp4313
(lp4314
I1607448840
aI209604024
abag4296
abag1
(g16
g3
Ntp4315
Rp4316
(lp4317
g1
(g20
g3
Ntp4318
Rp4319
(lp4320
F-0.1421374537327831
aF-0.06282869414487295
aF0.3325900238738454
abag1
(g24
g3
Ntp4321
Rp4322
(lp4323
F0.5141671042096274
aF0.48606481757837555
aF-0.4900618141412788
aF0.5091292570475063
abababag1
(g2
g3
Ntp4324
Rp4325
(lp4326
g1
(g7
g3
Ntp4327
Rp4328
(lp4329
I0
ag1
(g11
g3
Ntp4330
Rp4331
(lp4332
I1607448840
aI466315984
abaS'world'
p4333
abag1
(g16
g3
Ntp4334
Rp4335
(lp4336
g1
(g20
g3
Ntp4337
Rp4338
(lp4339
F-0.14087870702681476
aF-0.06007018151758284
aF0.33576245174149383
abag1
(g24
g3
Ntp4340
Rp4341
(lp4342
F0.505111379068063
aF0.4948391079556637
aF-0.48195906473140593
aF0.517409133951877
abababag1
(g2
g3
Ntp4343
Rp4344
(lp4345
g1
(g7
g3
Ntp4346
Rp4347
(lp4348
I0
ag1
(g11
g3
Ntp4349
Rp4350
(lp4351
I1607448840
aI466315984
abag4333
abag1
(g16
g3
Ntp4352
Rp4353
(lp4354
g1
(g20
g3
Ntp4355
Rp4356
(lp4357
F-0.14087870702681476
aF-0.06007018151758284
aF0.3327624517414938
abag1
(g24
g3
Ntp4358
Rp4359
(lp4360
F0.505111379068063
aF0.4948391079556637
aF-0.48195906473140593
aF0.517409133951877
abababag1
(g2
g3
Ntp4361
Rp4362
(lp4363
g1
(g7
g3
Ntp4364
Rp4365
(lp4366
I0
ag1
(g11
g3
Ntp4367
Rp4368
(lp4369
I1607448840
aI689794063
abaS'world'
p4370
abag1
(g16
g3
Ntp4371
Rp4372
(lp4373
g1
(g20
g3
Ntp4374
Rp4375
(lp4376
F-0.1406713076190054
aF-0.05702579571442985
aF0.3356087006606622
abag1
(g24
g3
Ntp4377
Rp4378
(lp4379
F0.5051977384091177
aF0.49511494003826545
aF-0.4824420876589179
aF0.5166101753861637
abababag1
(g2
g3
Ntp4380
Rp4381
(lp4382
g1
(g7
g3
Ntp4383
Rp4384
(lp4385
I0
ag1
(g11
g3
Ntp4386
Rp4387
(lp4388
I1607448840
aI689794063
abag4370
abag1
(g16
g3
Ntp4389
Rp4390
(lp4391
g1
(g20
g3
Ntp4392
Rp4393
(lp4394
F-0.1406713076190054
aF-0.05702579571442985
aF0.33260870066066217
abag1
(g24
g3
Ntp4395
Rp4396
(lp4397
F0.5051977384091177
aF0.49511494003826545
aF-0.4824420876589179
aF0.5166101753861637
abababag1
(g2
g3
Ntp4398
Rp4399
(lp4400
g1
(g7
g3
Ntp4401
Rp4402
(lp4403
I0
ag1
(g11
g3
Ntp4404
Rp4405
(lp4406
I1607448840
aI849571943
abaS'world'
p4407
abag1
(g16
g3
Ntp4408
Rp4409
(lp4410
g1
(g20
g3
Ntp4411
Rp4412
(lp4413
F-0.14098776253234854
aF-0.0538783501146358
aF0.33552511304612154
abag1
(g24
g3
Ntp4414
Rp4415
(lp4416
F0.5077044782133724
aF0.4922473254763436
aF-0.4845420304828076
aF0.5149249984794599
abababag1
(g2
g3
Ntp4417
Rp4418
(lp4419
g1
(g7
g3
Ntp4420
Rp4421
(lp4422
I0
ag1
(g11
g3
Ntp4423
Rp4424
(lp4425
I1607448840
aI849571943
abag4407
abag1
(g16
g3
Ntp4426
Rp4427
(lp4428
g1
(g20
g3
Ntp4429
Rp4430
(lp4431
F-0.14098776253234854
aF-0.0538783501146358
aF0.33252511304612153
abag1
(g24
g3
Ntp4432
Rp4433
(lp4434
F0.5077044782133724
aF0.4922473254763436
aF-0.4845420304828076
aF0.5149249984794599
abababag1
(g2
g3
Ntp4435
Rp4436
(lp4437
g1
(g7
g3
Ntp4438
Rp4439
(lp4440
I0
ag1
(g11
g3
Ntp4441
Rp4442
(lp4443
I1607448840
aI993501901
abaS'world'
p4444
abag1
(g16
g3
Ntp4445
Rp4446
(lp4447
g1
(g20
g3
Ntp4448
Rp4449
(lp4450
F-0.14116793097632807
aF-0.050735515794941365
aF0.33552478103880234
abag1
(g24
g3
Ntp4451
Rp4452
(lp4453
F0.5102355663947806
aF0.4896487393031986
aF-0.48661192929010705
aF0.5129450352202912
abababag1
(g2
g3
Ntp4454
Rp4455
(lp4456
g1
(g7
g3
Ntp4457
Rp4458
(lp4459
I0
ag1
(g11
g3
Ntp4460
Rp4461
(lp4462
I1607448840
aI993501901
abag4444
abag1
(g16
g3
Ntp4463
Rp4464
(lp4465
g1
(g20
g3
Ntp4466
Rp4467
(lp4468
F-0.14116793097632807
aF-0.050735515794941365
aF0.33252478103880234
abag1
(g24
g3
Ntp4469
Rp4470
(lp4471
F0.5102355663947806
aF0.4896487393031986
aF-0.48661192929010705
aF0.5129450352202912
abababag1
(g2
g3
Ntp4472
Rp4473
(lp4474
g1
(g7
g3
Ntp4475
Rp4476
(lp4477
I0
ag1
(g11
g3
Ntp4478
Rp4479
(lp4480
I1607448841
aI105670928
abaS'world'
p4481
abag1
(g16
g3
Ntp4482
Rp4483
(lp4484
g1
(g20
g3
Ntp4485
Rp4486
(lp4487
F-0.1415759365133664
aF-0.047674936722054626
aF0.33555714536585446
abag1
(g24
g3
Ntp4488
Rp4489
(lp4490
F0.512786000732269
aF0.48835279498002687
aF-0.4864472507075841
aF0.5117920841193564
abababag1
(g2
g3
Ntp4491
Rp4492
(lp4493
g1
(g7
g3
Ntp4494
Rp4495
(lp4496
I0
ag1
(g11
g3
Ntp4497
Rp4498
(lp4499
I1607448841
aI105670928
abag4481
abag1
(g16
g3
Ntp4500
Rp4501
(lp4502
g1
(g20
g3
Ntp4503
Rp4504
(lp4505
F-0.1415759365133664
aF-0.047674936722054626
aF0.33255714536585446
abag1
(g24
g3
Ntp4506
Rp4507
(lp4508
F0.512786000732269
aF0.48835279498002687
aF-0.4864472507075841
aF0.5117920841193564
abababag1
(g2
g3
Ntp4509
Rp4510
(lp4511
g1
(g7
g3
Ntp4512
Rp4513
(lp4514
I0
ag1
(g11
g3
Ntp4515
Rp4516
(lp4517
I1607448841
aI281761884
abaS'world'
p4518
abag1
(g16
g3
Ntp4519
Rp4520
(lp4521
g1
(g20
g3
Ntp4522
Rp4523
(lp4524
F-0.14053163646832384
aF-0.04476872640154735
aF0.33555376907172874
abag1
(g24
g3
Ntp4525
Rp4526
(lp4527
F0.5056984960580999
aF0.4976563217616203
aF-0.47918314227736575
aF0.5167114597649842
abababag1
(g2
g3
Ntp4528
Rp4529
(lp4530
g1
(g7
g3
Ntp4531
Rp4532
(lp4533
I0
ag1
(g11
g3
Ntp4534
Rp4535
(lp4536
I1607448841
aI281761884
abag4518
abag1
(g16
g3
Ntp4537
Rp4538
(lp4539
g1
(g20
g3
Ntp4540
Rp4541
(lp4542
F-0.14053163646832384
aF-0.04476872640154735
aF0.33255376907172873
abag1
(g24
g3
Ntp4543
Rp4544
(lp4545
F0.5056984960580999
aF0.4976563217616203
aF-0.47918314227736575
aF0.5167114597649842
abababag1
(g2
g3
Ntp4546
Rp4547
(lp4548
g1
(g7
g3
Ntp4549
Rp4550
(lp4551
I0
ag1
(g11
g3
Ntp4552
Rp4553
(lp4554
I1607448841
aI650007963
abaS'world'
p4555
abag1
(g16
g3
Ntp4556
Rp4557
(lp4558
g1
(g20
g3
Ntp4559
Rp4560
(lp4561
F-0.13934772629074835
aF-0.041996053230832935
aF0.3357449651214511
abag1
(g24
g3
Ntp4562
Rp4563
(lp4564
F0.49727072276589773
aF0.5059306434635622
aF-0.4729653297563544
aF0.5225512502452663
abababag1
(g2
g3
Ntp4565
Rp4566
(lp4567
g1
(g7
g3
Ntp4568
Rp4569
(lp4570
I0
ag1
(g11
g3
Ntp4571
Rp4572
(lp4573
I1607448841
aI650007963
abag4555
abag1
(g16
g3
Ntp4574
Rp4575
(lp4576
g1
(g20
g3
Ntp4577
Rp4578
(lp4579
F-0.13934772629074835
aF-0.041996053230832935
aF0.3327449651214511
abag1
(g24
g3
Ntp4580
Rp4581
(lp4582
F0.49727072276589773
aF0.5059306434635622
aF-0.4729653297563544
aF0.5225512502452663
abababag1
(g2
g3
Ntp4583
Rp4584
(lp4585
g1
(g7
g3
Ntp4586
Rp4587
(lp4588
I0
ag1
(g11
g3
Ntp4589
Rp4590
(lp4591
I1607448841
aI745518922
abaS'world'
p4592
abag1
(g16
g3
Ntp4593
Rp4594
(lp4595
g1
(g20
g3
Ntp4596
Rp4597
(lp4598
F-0.13960199741991478
aF-0.03885973578971124
aF0.3357441186493524
abag1
(g24
g3
Ntp4599
Rp4600
(lp4601
F0.5002695103573374
aF0.5047504551399844
aF-0.47389713750618917
aF0.5199797093216704
abababag1
(g2
g3
Ntp4602
Rp4603
(lp4604
g1
(g7
g3
Ntp4605
Rp4606
(lp4607
I0
ag1
(g11
g3
Ntp4608
Rp4609
(lp4610
I1607448841
aI745518922
abag4592
abag1
(g16
g3
Ntp4611
Rp4612
(lp4613
g1
(g20
g3
Ntp4614
Rp4615
(lp4616
F-0.13960199741991478
aF-0.03885973578971124
aF0.3327441186493524
abag1
(g24
g3
Ntp4617
Rp4618
(lp4619
F0.5002695103573374
aF0.5047504551399844
aF-0.47389713750618917
aF0.5199797093216704
abababag1
(g2
g3
Ntp4620
Rp4621
(lp4622
g1
(g7
g3
Ntp4623
Rp4624
(lp4625
I0
ag1
(g11
g3
Ntp4626
Rp4627
(lp4628
I1607448841
aI833642005
abaS'world'
p4629
abag1
(g16
g3
Ntp4630
Rp4631
(lp4632
g1
(g20
g3
Ntp4633
Rp4634
(lp4635
F-0.14039766609228832
aF-0.035682926380632765
aF0.3356705421863852
abag1
(g24
g3
Ntp4636
Rp4637
(lp4638
F0.5030394324197844
aF0.5028221863637967
aF-0.47431481833178374
aF0.5187934381254261
abababag1
(g2
g3
Ntp4639
Rp4640
(lp4641
g1
(g7
g3
Ntp4642
Rp4643
(lp4644
I0
ag1
(g11
g3
Ntp4645
Rp4646
(lp4647
I1607448841
aI833642005
abag4629
abag1
(g16
g3
Ntp4648
Rp4649
(lp4650
g1
(g20
g3
Ntp4651
Rp4652
(lp4653
F-0.14039766609228832
aF-0.035682926380632765
aF0.3326705421863852
abag1
(g24
g3
Ntp4654
Rp4655
(lp4656
F0.5030394324197844
aF0.5028221863637967
aF-0.47431481833178374
aF0.5187934381254261
abababag1
(g2
g3
Ntp4657
Rp4658
(lp4659
g1
(g7
g3
Ntp4660
Rp4661
(lp4662
I0
ag1
(g11
g3
Ntp4663
Rp4664
(lp4665
I1607448841
aI905606031
abaS'world'
p4666
abag1
(g16
g3
Ntp4667
Rp4668
(lp4669
g1
(g20
g3
Ntp4670
Rp4671
(lp4672
F-0.1410843689059283
aF-0.032587413747836365
aF0.3356215120907038
abag1
(g24
g3
Ntp4673
Rp4674
(lp4675
F0.5053714542297293
aF0.5015808524365264
aF-0.4739187331941369
aF0.5180901234789573
abababag1
(g2
g3
Ntp4676
Rp4677
(lp4678
g1
(g7
g3
Ntp4679
Rp4680
(lp4681
I0
ag1
(g11
g3
Ntp4682
Rp4683
(lp4684
I1607448841
aI905606031
abag4666
abag1
(g16
g3
Ntp4685
Rp4686
(lp4687
g1
(g20
g3
Ntp4688
Rp4689
(lp4690
F-0.1410843689059283
aF-0.032587413747836365
aF0.3326215120907038
abag1
(g24
g3
Ntp4691
Rp4692
(lp4693
F0.5053714542297293
aF0.5015808524365264
aF-0.4739187331941369
aF0.5180901234789573
abababag1
(g2
g3
Ntp4694
Rp4695
(lp4696
g1
(g7
g3
Ntp4697
Rp4698
(lp4699
I0
ag1
(g11
g3
Ntp4700
Rp4701
(lp4702
I1607448842
aI1596927
abaS'world'
p4703
abag1
(g16
g3
Ntp4704
Rp4705
(lp4706
g1
(g20
g3
Ntp4707
Rp4708
(lp4709
F-0.14121771973239053
aF-0.029546139639705357
aF0.3356426201077159
abag1
(g24
g3
Ntp4710
Rp4711
(lp4712
F0.5053575925456595
aF0.5015986403730022
aF-0.4733304934476741
aF0.518623901883622
abababag1
(g2
g3
Ntp4713
Rp4714
(lp4715
g1
(g7
g3
Ntp4716
Rp4717
(lp4718
I0
ag1
(g11
g3
Ntp4719
Rp4720
(lp4721
I1607448842
aI1596927
abag4703
abag1
(g16
g3
Ntp4722
Rp4723
(lp4724
g1
(g20
g3
Ntp4725
Rp4726
(lp4727
F-0.14121771973239053
aF-0.029546139639705357
aF0.3326426201077159
abag1
(g24
g3
Ntp4728
Rp4729
(lp4730
F0.5053575925456595
aF0.5015986403730022
aF-0.4733304934476741
aF0.518623901883622
abababag1
(g2
g3
Ntp4731
Rp4732
(lp4733
g1
(g7
g3
Ntp4734
Rp4735
(lp4736
I0
ag1
(g11
g3
Ntp4737
Rp4738
(lp4739
I1607448842
aI177803993
abaS'world'
p4740
abag1
(g16
g3
Ntp4741
Rp4742
(lp4743
g1
(g20
g3
Ntp4744
Rp4745
(lp4746
F-0.14010506073241216
aF-0.02659667615210373
aF0.3356516033839648
abag1
(g24
g3
Ntp4747
Rp4748
(lp4749
F0.49975716616128973
aF0.5084512931381784
aF-0.4683593088546807
aF0.5218808438577882
abababag1
(g2
g3
Ntp4750
Rp4751
(lp4752
g1
(g7
g3
Ntp4753
Rp4754
(lp4755
I0
ag1
(g11
g3
Ntp4756
Rp4757
(lp4758
I1607448842
aI177803993
abag4740
abag1
(g16
g3
Ntp4759
Rp4760
(lp4761
g1
(g20
g3
Ntp4762
Rp4763
(lp4764
F-0.14010506073241216
aF-0.02659667615210373
aF0.3326516033839648
abag1
(g24
g3
Ntp4765
Rp4766
(lp4767
F0.49975716616128973
aF0.5084512931381784
aF-0.4683593088546807
aF0.5218808438577882
abababag1
(g2
g3
Ntp4768
Rp4769
(lp4770
g1
(g7
g3
Ntp4771
Rp4772
(lp4773
I0
ag1
(g11
g3
Ntp4774
Rp4775
(lp4776
I1607448842
aI337841033
abaS'world'
p4777
abag1
(g16
g3
Ntp4778
Rp4779
(lp4780
g1
(g20
g3
Ntp4781
Rp4782
(lp4783
F-0.13928889221030777
aF-0.023675708062590787
aF0.33553513162979554
abag1
(g24
g3
Ntp4784
Rp4785
(lp4786
F0.502280782834346
aF0.5082504347660685
aF-0.4709142233513318
aF0.5173348093844368
abababag1
(g2
g3
Ntp4787
Rp4788
(lp4789
g1
(g7
g3
Ntp4790
Rp4791
(lp4792
I0
ag1
(g11
g3
Ntp4793
Rp4794
(lp4795
I1607448842
aI337841033
abag4777
abag1
(g16
g3
Ntp4796
Rp4797
(lp4798
g1
(g20
g3
Ntp4799
Rp4800
(lp4801
F-0.13928889221030777
aF-0.023675708062590787
aF0.33253513162979553
abag1
(g24
g3
Ntp4802
Rp4803
(lp4804
F0.502280782834346
aF0.5082504347660685
aF-0.4709142233513318
aF0.5173348093844368
abababag1
(g2
g3
Ntp4805
Rp4806
(lp4807
g1
(g7
g3
Ntp4808
Rp4809
(lp4810
I0
ag1
(g11
g3
Ntp4811
Rp4812
(lp4813
I1607448844
aI521557092
abaS'world'
p4814
abag1
(g16
g3
Ntp4815
Rp4816
(lp4817
g1
(g20
g3
Ntp4818
Rp4819
(lp4820
F-0.13972557209883135
aF-0.020696913181545026
aF0.33541140810775566
abag1
(g24
g3
Ntp4821
Rp4822
(lp4823
F0.49363836497615393
aF0.5159754556580896
aF-0.46173207676102135
aF0.5262071674464829
abababag1
(g2
g3
Ntp4824
Rp4825
(lp4826
g1
(g7
g3
Ntp4827
Rp4828
(lp4829
I0
ag1
(g11
g3
Ntp4830
Rp4831
(lp4832
I1607448844
aI521557092
abag4814
abag1
(g16
g3
Ntp4833
Rp4834
(lp4835
g1
(g20
g3
Ntp4836
Rp4837
(lp4838
F-0.13972557209883135
aF-0.020696913181545026
aF0.33241140810775566
abag1
(g24
g3
Ntp4839
Rp4840
(lp4841
F0.49363836497615393
aF0.5159754556580896
aF-0.46173207676102135
aF0.5262071674464829
abababag1
(g2
g3
Ntp4842
Rp4843
(lp4844
g1
(g7
g3
Ntp4845
Rp4846
(lp4847
I0
ag1
(g11
g3
Ntp4848
Rp4849
(lp4850
I1607448844
aI937592029
abaS'world'
p4851
abag1
(g16
g3
Ntp4852
Rp4853
(lp4854
g1
(g20
g3
Ntp4855
Rp4856
(lp4857
F-0.13876539762273463
aF-0.017822846805809024
aF0.33528741695350933
abag1
(g24
g3
Ntp4858
Rp4859
(lp4860
F0.4791850211174821
aF0.5300240698907129
aF-0.4476386325034438
aF0.5376577494685351
abababag1
(g2
g3
Ntp4861
Rp4862
(lp4863
g1
(g7
g3
Ntp4864
Rp4865
(lp4866
I0
ag1
(g11
g3
Ntp4867
Rp4868
(lp4869
I1607448844
aI937592029
abag4851
abag1
(g16
g3
Ntp4870
Rp4871
(lp4872
g1
(g20
g3
Ntp4873
Rp4874
(lp4875
F-0.13876539762273463
aF-0.017822846805809024
aF0.33228741695350933
abag1
(g24
g3
Ntp4876
Rp4877
(lp4878
F0.4791850211174821
aF0.5300240698907129
aF-0.4476386325034438
aF0.5376577494685351
abababag1
(g2
g3
Ntp4879
Rp4880
(lp4881
g1
(g7
g3
Ntp4882
Rp4883
(lp4884
I0
ag1
(g11
g3
Ntp4885
Rp4886
(lp4887
I1607448845
aI161936998
abaS'world'
p4888
abag1
(g16
g3
Ntp4889
Rp4890
(lp4891
g1
(g20
g3
Ntp4892
Rp4893
(lp4894
F-0.13921144775342528
aF-0.01484443096071037
aF0.3352932994666924
abag1
(g24
g3
Ntp4895
Rp4896
(lp4897
F0.4801999133623676
aF0.5296382420951989
aF-0.44719991631931383
aF0.5374975447023745
abababag1
(g2
g3
Ntp4898
Rp4899
(lp4900
g1
(g7
g3
Ntp4901
Rp4902
(lp4903
I0
ag1
(g11
g3
Ntp4904
Rp4905
(lp4906
I1607448845
aI161936998
abag4888
abag1
(g16
g3
Ntp4907
Rp4908
(lp4909
g1
(g20
g3
Ntp4910
Rp4911
(lp4912
F-0.13921144775342528
aF-0.01484443096071037
aF0.3322932994666924
abag1
(g24
g3
Ntp4913
Rp4914
(lp4915
F0.4801999133623676
aF0.5296382420951989
aF-0.44719991631931383
aF0.5374975447023745
abababag1
(g2
g3
Ntp4916
Rp4917
(lp4918
g1
(g7
g3
Ntp4919
Rp4920
(lp4921
I0
ag1
(g11
g3
Ntp4922
Rp4923
(lp4924
I1607448845
aI665380001
abaS'world'
p4925
abag1
(g16
g3
Ntp4926
Rp4927
(lp4928
g1
(g20
g3
Ntp4929
Rp4930
(lp4931
F-0.13886381586395885
aF-0.011809209165860823
aF0.33539483145862725
abag1
(g24
g3
Ntp4932
Rp4933
(lp4934
F0.44990161934232287
aF0.5538918790136995
aF-0.41744617729399913
aF0.5626108853714586
abababag1
(g2
g3
Ntp4935
Rp4936
(lp4937
g1
(g7
g3
Ntp4938
Rp4939
(lp4940
I0
ag1
(g11
g3
Ntp4941
Rp4942
(lp4943
I1607448845
aI665380001
abag4925
abag1
(g16
g3
Ntp4944
Rp4945
(lp4946
g1
(g20
g3
Ntp4947
Rp4948
(lp4949
F-0.13886381586395885
aF-0.011809209165860823
aF0.33239483145862725
abag1
(g24
g3
Ntp4950
Rp4951
(lp4952
F0.44990161934232287
aF0.5538918790136995
aF-0.41744617729399913
aF0.5626108853714586
abababag1
(g2
g3
Ntp4953
Rp4954
(lp4955
g1
(g7
g3
Ntp4956
Rp4957
(lp4958
I0
ag1
(g11
g3
Ntp4959
Rp4960
(lp4961
I1607448845
aI953766107
abaS'world'
p4962
abag1
(g16
g3
Ntp4963
Rp4964
(lp4965
g1
(g20
g3
Ntp4966
Rp4967
(lp4968
F-0.13930727503219206
aF-0.008710735295819283
aF0.3353343881522906
abag1
(g24
g3
Ntp4969
Rp4970
(lp4971
F0.43604949305833757
aF0.5638089867012979
aF-0.4039078070444296
aF0.573444635101753
abababag1
(g2
g3
Ntp4972
Rp4973
(lp4974
g1
(g7
g3
Ntp4975
Rp4976
(lp4977
I0
ag1
(g11
g3
Ntp4978
Rp4979
(lp4980
I1607448845
aI953766107
abag4962
abag1
(g16
g3
Ntp4981
Rp4982
(lp4983
g1
(g20
g3
Ntp4984
Rp4985
(lp4986
F-0.13930727503219206
aF-0.008710735295819283
aF0.3323343881522906
abag1
(g24
g3
Ntp4987
Rp4988
(lp4989
F0.43604949305833757
aF0.5638089867012979
aF-0.4039078070444296
aF0.573444635101753
abababag1
(g2
g3
Ntp4990
Rp4991
(lp4992
g1
(g7
g3
Ntp4993
Rp4994
(lp4995
I0
ag1
(g11
g3
Ntp4996
Rp4997
(lp4998
I1607448846
aI89652061
abaS'world'
p4999
abag1
(g16
g3
Ntp5000
Rp5001
(lp5002
g1
(g20
g3
Ntp5003
Rp5004
(lp5005
F-0.14021168352749785
aF-0.005770020136665633
aF0.3352428446927531
abag1
(g24
g3
Ntp5006
Rp5007
(lp5008
F0.4300769566009854
aF0.5680340256772815
aF-0.39755274273299357
aF0.5782066878021821
abababag1
(g2
g3
Ntp5009
Rp5010
(lp5011
g1
(g7
g3
Ntp5012
Rp5013
(lp5014
I0
ag1
(g11
g3
Ntp5015
Rp5016
(lp5017
I1607448846
aI89652061
abag4999
abag1
(g16
g3
Ntp5018
Rp5019
(lp5020
g1
(g20
g3
Ntp5021
Rp5022
(lp5023
F-0.14021168352749785
aF-0.005770020136665633
aF0.3322428446927531
abag1
(g24
g3
Ntp5024
Rp5025
(lp5026
F0.4300769566009854
aF0.5680340256772815
aF-0.39755274273299357
aF0.5782066878021821
abababag1
(g2
g3
Ntp5027
Rp5028
(lp5029
g1
(g7
g3
Ntp5030
Rp5031
(lp5032
I0
ag1
(g11
g3
Ntp5033
Rp5034
(lp5035
I1607448846
aI249325990
abaS'world'
p5036
abag1
(g16
g3
Ntp5037
Rp5038
(lp5039
g1
(g20
g3
Ntp5040
Rp5041
(lp5042
F-0.1408329760414342
aF-0.002764174892481414
aF0.33521294443897764
abag1
(g24
g3
Ntp5043
Rp5044
(lp5045
F0.4220821817914222
aF0.5734826914378733
aF-0.38976649416461384
aF0.5839917075284476
abababag1
(g2
g3
Ntp5046
Rp5047
(lp5048
g1
(g7
g3
Ntp5049
Rp5050
(lp5051
I0
ag1
(g11
g3
Ntp5052
Rp5053
(lp5054
I1607448846
aI249325990
abag5036
abag1
(g16
g3
Ntp5055
Rp5056
(lp5057
g1
(g20
g3
Ntp5058
Rp5059
(lp5060
F-0.1408329760414342
aF-0.002764174892481414
aF0.33221294443897764
abag1
(g24
g3
Ntp5061
Rp5062
(lp5063
F0.4220821817914222
aF0.5734826914378733
aF-0.38976649416461384
aF0.5839917075284476
abababag1
(g2
g3
Ntp5064
Rp5065
(lp5066
g1
(g7
g3
Ntp5067
Rp5068
(lp5069
I0
ag1
(g11
g3
Ntp5070
Rp5071
(lp5072
I1607448846
aI378027915
abaS'world'
p5073
abag1
(g16
g3
Ntp5074
Rp5075
(lp5076
g1
(g20
g3
Ntp5077
Rp5078
(lp5079
F-0.14172553012406236
aF0.00013038470925851985
aF0.33520561461333953
abag1
(g24
g3
Ntp5080
Rp5081
(lp5082
F0.4131859389656736
aF0.579500131705145
aF-0.38085526885889454
aF0.5902594695362319
abababag1
(g2
g3
Ntp5083
Rp5084
(lp5085
g1
(g7
g3
Ntp5086
Rp5087
(lp5088
I0
ag1
(g11
g3
Ntp5089
Rp5090
(lp5091
I1607448846
aI378027915
abag5073
abag1
(g16
g3
Ntp5092
Rp5093
(lp5094
g1
(g20
g3
Ntp5095
Rp5096
(lp5097
F-0.14172553012406236
aF0.00013038470925851985
aF0.33220561461333953
abag1
(g24
g3
Ntp5098
Rp5099
(lp5100
F0.4131859389656736
aF0.579500131705145
aF-0.38085526885889454
aF0.5902594695362319
abababag1
(g2
g3
Ntp5101
Rp5102
(lp5103
g1
(g7
g3
Ntp5104
Rp5105
(lp5106
I0
ag1
(g11
g3
Ntp5107
Rp5108
(lp5109
I1607448846
aI481498956
abaS'world'
p5110
abag1
(g16
g3
Ntp5111
Rp5112
(lp5113
g1
(g20
g3
Ntp5114
Rp5115
(lp5116
F-0.1426857490231433
aF0.0030296195481608634
aF0.3351724695520989
abag1
(g24
g3
Ntp5117
Rp5118
(lp5119
F0.40582312334018267
aF0.5843304015447018
aF-0.37366943177291134
aF0.5951778979024137
abababag1
(g2
g3
Ntp5120
Rp5121
(lp5122
g1
(g7
g3
Ntp5123
Rp5124
(lp5125
I0
ag1
(g11
g3
Ntp5126
Rp5127
(lp5128
I1607448846
aI481498956
abag5110
abag1
(g16
g3
Ntp5129
Rp5130
(lp5131
g1
(g20
g3
Ntp5132
Rp5133
(lp5134
F-0.1426857490231433
aF0.0030296195481608634
aF0.3321724695520989
abag1
(g24
g3
Ntp5135
Rp5136
(lp5137
F0.40582312334018267
aF0.5843304015447018
aF-0.37366943177291134
aF0.5951778979024137
abababag1
(g2
g3
Ntp5138
Rp5139
(lp5140
g1
(g7
g3
Ntp5141
Rp5142
(lp5143
I0
ag1
(g11
g3
Ntp5144
Rp5145
(lp5146
I1607448846
aI825476884
abaS'world'
p5147
abag1
(g16
g3
Ntp5148
Rp5149
(lp5150
g1
(g20
g3
Ntp5151
Rp5152
(lp5153
F-0.14399999351913684
aF0.005741181472478405
aF0.3350825015473687
abag1
(g24
g3
Ntp5154
Rp5155
(lp5156
F0.378647417860132
aF0.6007185624738367
aF-0.3469456348743638
aF0.6126924743203939
abababag1
(g2
g3
Ntp5157
Rp5158
(lp5159
g1
(g7
g3
Ntp5160
Rp5161
(lp5162
I0
ag1
(g11
g3
Ntp5163
Rp5164
(lp5165
I1607448846
aI825476884
abag5147
abag1
(g16
g3
Ntp5166
Rp5167
(lp5168
g1
(g20
g3
Ntp5169
Rp5170
(lp5171
F-0.14399999351913684
aF0.005741181472478405
aF0.3320825015473687
abag1
(g24
g3
Ntp5172
Rp5173
(lp5174
F0.378647417860132
aF0.6007185624738367
aF-0.3469456348743638
aF0.6126924743203939
abababag1
(g2
g3
Ntp5175
Rp5176
(lp5177
g1
(g7
g3
Ntp5178
Rp5179
(lp5180
I0
ag1
(g11
g3
Ntp5181
Rp5182
(lp5183
I1607448847
aI17528057
abaS'world'
p5184
abag1
(g16
g3
Ntp5185
Rp5186
(lp5187
g1
(g20
g3
Ntp5188
Rp5189
(lp5190
F-0.145688043237883
aF0.008230961554190796
aF0.334977638047246
abag1
(g24
g3
Ntp5191
Rp5192
(lp5193
F0.36690267324913217
aF0.6076453546061488
aF-0.33375453370903674
aF0.6202882093163403
abababag1
(g2
g3
Ntp5194
Rp5195
(lp5196
g1
(g7
g3
Ntp5197
Rp5198
(lp5199
I0
ag1
(g11
g3
Ntp5200
Rp5201
(lp5202
I1607448847
aI17528057
abag5184
abag1
(g16
g3
Ntp5203
Rp5204
(lp5205
g1
(g20
g3
Ntp5206
Rp5207
(lp5208
F-0.145688043237883
aF0.008230961554190796
aF0.331977638047246
abag1
(g24
g3
Ntp5209
Rp5210
(lp5211
F0.36690267324913217
aF0.6076453546061488
aF-0.33375453370903674
aF0.6202882093163403
abababag1
(g2
g3
Ntp5212
Rp5213
(lp5214
g1
(g7
g3
Ntp5215
Rp5216
(lp5217
I0
ag1
(g11
g3
Ntp5218
Rp5219
(lp5220
I1607448847
aI161735057
abaS'world'
p5221
abag1
(g16
g3
Ntp5222
Rp5223
(lp5224
g1
(g20
g3
Ntp5225
Rp5226
(lp5227
F-0.14769253074490915
aF0.010598664455493371
aF0.3348765281164878
abag1
(g24
g3
Ntp5228
Rp5229
(lp5230
F0.3596372951722473
aF0.6120202235627243
aF-0.32453722711491884
aF0.6251142696243486
abababag1
(g2
g3
Ntp5231
Rp5232
(lp5233
g1
(g7
g3
Ntp5234
Rp5235
(lp5236
I0
ag1
(g11
g3
Ntp5237
Rp5238
(lp5239
I1607448847
aI161735057
abag5221
abag1
(g16
g3
Ntp5240
Rp5241
(lp5242
g1
(g20
g3
Ntp5243
Rp5244
(lp5245
F-0.14769253074490915
aF0.010598664455493371
aF0.3318765281164878
abag1
(g24
g3
Ntp5246
Rp5247
(lp5248
F0.3596372951722473
aF0.6120202235627243
aF-0.32453722711491884
aF0.6251142696243486
abababag1
(g2
g3
Ntp5249
Rp5250
(lp5251
g1
(g7
g3
Ntp5252
Rp5253
(lp5254
I0
ag1
(g11
g3
Ntp5255
Rp5256
(lp5257
I1607448847
aI289364099
abaS'world'
p5258
abag1
(g16
g3
Ntp5259
Rp5260
(lp5261
g1
(g20
g3
Ntp5262
Rp5263
(lp5264
F-0.14969055365497114
aF0.01290085413530222
aF0.33485799225991825
abag1
(g24
g3
Ntp5265
Rp5266
(lp5267
F0.349457805243928
aF0.6177398094198294
aF-0.3131490427494006
aF0.631042349796893
abababag1
(g2
g3
Ntp5268
Rp5269
(lp5270
g1
(g7
g3
Ntp5271
Rp5272
(lp5273
I0
ag1
(g11
g3
Ntp5274
Rp5275
(lp5276
I1607448847
aI289364099
abag5258
abag1
(g16
g3
Ntp5277
Rp5278
(lp5279
g1
(g20
g3
Ntp5280
Rp5281
(lp5282
F-0.14969055365497114
aF0.01290085413530222
aF0.33185799225991824
abag1
(g24
g3
Ntp5283
Rp5284
(lp5285
F0.349457805243928
aF0.6177398094198294
aF-0.3131490427494006
aF0.631042349796893
abababag1
(g2
g3
Ntp5286
Rp5287
(lp5288
g1
(g7
g3
Ntp5289
Rp5290
(lp5291
I0
ag1
(g11
g3
Ntp5292
Rp5293
(lp5294
I1607448847
aI785505056
abaS'world'
p5295
abag1
(g16
g3
Ntp5296
Rp5297
(lp5298
g1
(g20
g3
Ntp5299
Rp5300
(lp5301
F-0.15177544399082113
aF0.015082446541190325
aF0.3347320465051607
abag1
(g24
g3
Ntp5302
Rp5303
(lp5304
F0.302397549134881
aF0.6393257563641116
aF-0.26691490977642834
aF0.6546561925665374
abababag1
(g2
g3
Ntp5305
Rp5306
(lp5307
g1
(g7
g3
Ntp5308
Rp5309
(lp5310
I0
ag1
(g11
g3
Ntp5311
Rp5312
(lp5313
I1607448847
aI785505056
abag5295
abag1
(g16
g3
Ntp5314
Rp5315
(lp5316
g1
(g20
g3
Ntp5317
Rp5318
(lp5319
F-0.15177544399082113
aF0.015082446541190325
aF0.3317320465051607
abag1
(g24
g3
Ntp5320
Rp5321
(lp5322
F0.302397549134881
aF0.6393257563641116
aF-0.26691490977642834
aF0.6546561925665374
abababag1
(g2
g3
Ntp5323
Rp5324
(lp5325
g1
(g7
g3
Ntp5326
Rp5327
(lp5328
I0
ag1
(g11
g3
Ntp5329
Rp5330
(lp5331
I1607448847
aI993597984
abaS'world'
p5332
abag1
(g16
g3
Ntp5333
Rp5334
(lp5335
g1
(g20
g3
Ntp5336
Rp5337
(lp5338
F-0.15390099829989326
aF0.017215405917211827
aF0.3345750009691114
abag1
(g24
g3
Ntp5339
Rp5340
(lp5341
F0.29034083509431957
aF0.6444665059769028
aF-0.25475066413999603
aF0.6598994023871269
abababag1
(g2
g3
Ntp5342
Rp5343
(lp5344
g1
(g7
g3
Ntp5345
Rp5346
(lp5347
I0
ag1
(g11
g3
Ntp5348
Rp5349
(lp5350
I1607448847
aI993597984
abag5332
abag1
(g16
g3
Ntp5351
Rp5352
(lp5353
g1
(g20
g3
Ntp5354
Rp5355
(lp5356
F-0.15390099829989326
aF0.017215405917211827
aF0.3315750009691114
abag1
(g24
g3
Ntp5357
Rp5358
(lp5359
F0.29034083509431957
aF0.6444665059769028
aF-0.25475066413999603
aF0.6598994023871269
abababag1
(g2
g3
Ntp5360
Rp5361
(lp5362
g1
(g7
g3
Ntp5363
Rp5364
(lp5365
I0
ag1
(g11
g3
Ntp5366
Rp5367
(lp5368
I1607448848
aI153346061
abaS'world'
p5369
abag1
(g16
g3
Ntp5370
Rp5371
(lp5372
g1
(g20
g3
Ntp5373
Rp5374
(lp5375
F-0.15610642281517342
aF0.019404898833980444
aF0.33441262565368574
abag1
(g24
g3
Ntp5376
Rp5377
(lp5378
F0.2815380861509282
aF0.6482189519031756
aF-0.24567283610139473
aF0.6634706881557908
abababag1
(g2
g3
Ntp5379
Rp5380
(lp5381
g1
(g7
g3
Ntp5382
Rp5383
(lp5384
I0
ag1
(g11
g3
Ntp5385
Rp5386
(lp5387
I1607448848
aI153346061
abag5369
abag1
(g16
g3
Ntp5388
Rp5389
(lp5390
g1
(g20
g3
Ntp5391
Rp5392
(lp5393
F-0.15610642281517342
aF0.019404898833980444
aF0.33141262565368573
abag1
(g24
g3
Ntp5394
Rp5395
(lp5396
F0.2815380861509282
aF0.6482189519031756
aF-0.24567283610139473
aF0.6634706881557908
abababag1
(g2
g3
Ntp5397
Rp5398
(lp5399
g1
(g7
g3
Ntp5400
Rp5401
(lp5402
I0
ag1
(g11
g3
Ntp5403
Rp5404
(lp5405
I1607448848
aI313533067
abaS'world'
p5406
abag1
(g16
g3
Ntp5407
Rp5408
(lp5409
g1
(g20
g3
Ntp5410
Rp5411
(lp5412
F-0.15835569761738794
aF0.021551769669162245
aF0.33438051587525874
abag1
(g24
g3
Ntp5413
Rp5414
(lp5415
F0.2686799765987508
aF0.6534285409711637
aF-0.23273010456225465
aF0.6683404150952067
abababag1
(g2
g3
Ntp5416
Rp5417
(lp5418
g1
(g7
g3
Ntp5419
Rp5420
(lp5421
I0
ag1
(g11
g3
Ntp5422
Rp5423
(lp5424
I1607448848
aI313533067
abag5406
abag1
(g16
g3
Ntp5425
Rp5426
(lp5427
g1
(g20
g3
Ntp5428
Rp5429
(lp5430
F-0.15835569761738794
aF0.021551769669162245
aF0.33138051587525874
abag1
(g24
g3
Ntp5431
Rp5432
(lp5433
F0.2686799765987508
aF0.6534285409711637
aF-0.23273010456225465
aF0.6683404150952067
abababag1
(g2
g3
Ntp5434
Rp5435
(lp5436
g1
(g7
g3
Ntp5437
Rp5438
(lp5439
I0
ag1
(g11
g3
Ntp5440
Rp5441
(lp5442
I1607448848
aI401451110
abaS'world'
p5443
abag1
(g16
g3
Ntp5444
Rp5445
(lp5446
g1
(g20
g3
Ntp5447
Rp5448
(lp5449
F-0.16055365988236622
aF0.02363303588487673
aF0.33429221915494306
abag1
(g24
g3
Ntp5450
Rp5451
(lp5452
F0.26117970541499463
aF0.6565598578910392
aF-0.2252078078656018
aF0.6708172312648248
abababag1
(g2
g3
Ntp5453
Rp5454
(lp5455
g1
(g7
g3
Ntp5456
Rp5457
(lp5458
I0
ag1
(g11
g3
Ntp5459
Rp5460
(lp5461
I1607448848
aI401451110
abag5443
abag1
(g16
g3
Ntp5462
Rp5463
(lp5464
g1
(g20
g3
Ntp5465
Rp5466
(lp5467
F-0.16055365988236622
aF0.02363303588487673
aF0.33129221915494306
abag1
(g24
g3
Ntp5468
Rp5469
(lp5470
F0.26117970541499463
aF0.6565598578910392
aF-0.2252078078656018
aF0.6708172312648248
abababag1
(g2
g3
Ntp5471
Rp5472
(lp5473
g1
(g7
g3
Ntp5474
Rp5475
(lp5476
I0
ag1
(g11
g3
Ntp5477
Rp5478
(lp5479
I1607448848
aI481628894
abaS'world'
p5480
abag1
(g16
g3
Ntp5481
Rp5482
(lp5483
g1
(g20
g3
Ntp5484
Rp5485
(lp5486
F-0.16297262988533834
aF0.02578225065133209
aF0.33420937921518973
abag1
(g24
g3
Ntp5487
Rp5488
(lp5489
F0.2518356868545401
aF0.6603516516930296
aF-0.21640061346648456
aF0.6735616211039042
abababag1
(g2
g3
Ntp5490
Rp5491
(lp5492
g1
(g7
g3
Ntp5493
Rp5494
(lp5495
I0
ag1
(g11
g3
Ntp5496
Rp5497
(lp5498
I1607448848
aI481628894
abag5480
abag1
(g16
g3
Ntp5499
Rp5500
(lp5501
g1
(g20
g3
Ntp5502
Rp5503
(lp5504
F-0.16297262988533834
aF0.02578225065133209
aF0.3312093792151897
abag1
(g24
g3
Ntp5505
Rp5506
(lp5507
F0.2518356868545401
aF0.6603516516930296
aF-0.21640061346648456
aF0.6735616211039042
abababag1
(g2
g3
Ntp5508
Rp5509
(lp5510
g1
(g7
g3
Ntp5511
Rp5512
(lp5513
I0
ag1
(g11
g3
Ntp5514
Rp5515
(lp5516
I1607448848
aI585712909
abaS'world'
p5517
abag1
(g16
g3
Ntp5518
Rp5519
(lp5520
g1
(g20
g3
Ntp5521
Rp5522
(lp5523
F-0.1652807512478171
aF0.02774011447883309
aF0.334115510270938
abag1
(g24
g3
Ntp5524
Rp5525
(lp5526
F0.2391418286621422
aF0.6650708735729376
aF-0.2049755103494098
aF0.6771092667111089
abababag1
(g2
g3
Ntp5527
Rp5528
(lp5529
g1
(g7
g3
Ntp5530
Rp5531
(lp5532
I0
ag1
(g11
g3
Ntp5533
Rp5534
(lp5535
I1607448848
aI585712909
abag5517
abag1
(g16
g3
Ntp5536
Rp5537
(lp5538
g1
(g20
g3
Ntp5539
Rp5540
(lp5541
F-0.1652807512478171
aF0.02774011447883309
aF0.331115510270938
abag1
(g24
g3
Ntp5542
Rp5543
(lp5544
F0.2391418286621422
aF0.6650708735729376
aF-0.2049755103494098
aF0.6771092667111089
abababag1
(g2
g3
Ntp5545
Rp5546
(lp5547
g1
(g7
g3
Ntp5548
Rp5549
(lp5550
I0
ag1
(g11
g3
Ntp5551
Rp5552
(lp5553
I1607448850
aI217544078
abaS'world'
p5554
abag1
(g16
g3
Ntp5555
Rp5556
(lp5557
g1
(g20
g3
Ntp5558
Rp5559
(lp5560
F-0.1681134293472016
aF0.02897223233342577
aF0.33425487460487624
abag1
(g24
g3
Ntp5561
Rp5562
(lp5563
F0.15548173306116134
aF0.6858611774367219
aF-0.12184445626168007
aF0.7004097404003653
abababag1
(g2
g3
Ntp5564
Rp5565
(lp5566
g1
(g7
g3
Ntp5567
Rp5568
(lp5569
I0
ag1
(g11
g3
Ntp5570
Rp5571
(lp5572
I1607448850
aI217544078
abag5554
abag1
(g16
g3
Ntp5573
Rp5574
(lp5575
g1
(g20
g3
Ntp5576
Rp5577
(lp5578
F-0.1681134293472016
aF0.02897223233342577
aF0.33125487460487624
abag1
(g24
g3
Ntp5579
Rp5580
(lp5581
F0.15548173306116134
aF0.6858611774367219
aF-0.12184445626168007
aF0.7004097404003653
abababag1
(g2
g3
Ntp5582
Rp5583
(lp5584
g1
(g7
g3
Ntp5585
Rp5586
(lp5587
I0
ag1
(g11
g3
Ntp5588
Rp5589
(lp5590
I1607448850
aI385447978
abaS'world'
p5591
abag1
(g16
g3
Ntp5592
Rp5593
(lp5594
g1
(g20
g3
Ntp5595
Rp5596
(lp5597
F-0.17081203225492586
aF0.030291989249674998
aF0.33419555387922245
abag1
(g24
g3
Ntp5598
Rp5599
(lp5600
F0.14268149037911268
aF0.6886938497399364
aF-0.10922667622096245
aF0.7024331333552699
abababag1
(g2
g3
Ntp5601
Rp5602
(lp5603
g1
(g7
g3
Ntp5604
Rp5605
(lp5606
I0
ag1
(g11
g3
Ntp5607
Rp5608
(lp5609
I1607448850
aI385447978
abag5591
abag1
(g16
g3
Ntp5610
Rp5611
(lp5612
g1
(g20
g3
Ntp5613
Rp5614
(lp5615
F-0.17081203225492586
aF0.030291989249674998
aF0.33119555387922245
abag1
(g24
g3
Ntp5616
Rp5617
(lp5618
F0.14268149037911268
aF0.6886938497399364
aF-0.10922667622096245
aF0.7024331333552699
abababag1
(g2
g3
Ntp5619
Rp5620
(lp5621
g1
(g7
g3
Ntp5622
Rp5623
(lp5624
I0
ag1
(g11
g3
Ntp5625
Rp5626
(lp5627
I1607448850
aI553641080
abaS'world'
p5628
abag1
(g16
g3
Ntp5629
Rp5630
(lp5631
g1
(g20
g3
Ntp5632
Rp5633
(lp5634
F-0.17353968120500435
aF0.03175416966246504
aF0.33415868122228876
abag1
(g24
g3
Ntp5635
Rp5636
(lp5637
F0.13470342785869985
aF0.6909835892206735
aF-0.10221674114454565
aF0.7028146297428793
abababag1
(g2
g3
Ntp5638
Rp5639
(lp5640
g1
(g7
g3
Ntp5641
Rp5642
(lp5643
I0
ag1
(g11
g3
Ntp5644
Rp5645
(lp5646
I1607448850
aI553641080
abag5628
abag1
(g16
g3
Ntp5647
Rp5648
(lp5649
g1
(g20
g3
Ntp5650
Rp5651
(lp5652
F-0.17353968120500435
aF0.03175416966246504
aF0.33115868122228875
abag1
(g24
g3
Ntp5653
Rp5654
(lp5655
F0.13470342785869985
aF0.6909835892206735
aF-0.10221674114454565
aF0.7028146297428793
abababag1
(g2
g3
Ntp5656
Rp5657
(lp5658
g1
(g7
g3
Ntp5659
Rp5660
(lp5661
I0
ag1
(g11
g3
Ntp5662
Rp5663
(lp5664
I1607448850
aI737306118
abaS'world'
p5665
abag1
(g16
g3
Ntp5666
Rp5667
(lp5668
g1
(g20
g3
Ntp5669
Rp5670
(lp5671
F-0.17617587565601023
aF0.033188428324470054
aF0.3340548823238956
abag1
(g24
g3
Ntp5672
Rp5673
(lp5674
F0.13332237424431598
aF0.6921282532909053
aF-0.10259168795071741
aF0.7018964105092443
abababag1
(g2
g3
Ntp5675
Rp5676
(lp5677
g1
(g7
g3
Ntp5678
Rp5679
(lp5680
I0
ag1
(g11
g3
Ntp5681
Rp5682
(lp5683
I1607448850
aI737306118
abag5665
abag1
(g16
g3
Ntp5684
Rp5685
(lp5686
g1
(g20
g3
Ntp5687
Rp5688
(lp5689
F-0.17617587565601023
aF0.033188428324470054
aF0.33105488232389557
abag1
(g24
g3
Ntp5690
Rp5691
(lp5692
F0.13332237424431598
aF0.6921282532909053
aF-0.10259168795071741
aF0.7018964105092443
abababag1
(g2
g3
Ntp5693
Rp5694
(lp5695
g1
(g7
g3
Ntp5696
Rp5697
(lp5698
I0
ag1
(g11
g3
Ntp5699
Rp5700
(lp5701
I1607448851
aI233472108
abaS'world'
p5702
abag1
(g16
g3
Ntp5703
Rp5704
(lp5705
g1
(g20
g3
Ntp5706
Rp5707
(lp5708
F-0.17921314276214995
aF0.0335054258928981
aF0.3340508614998903
abag1
(g24
g3
Ntp5709
Rp5710
(lp5711
F0.09952038626626558
aF0.6964511073034094
aF-0.06869059802368688
aF0.707342314297976
abababag1
(g2
g3
Ntp5712
Rp5713
(lp5714
g1
(g7
g3
Ntp5715
Rp5716
(lp5717
I0
ag1
(g11
g3
Ntp5718
Rp5719
(lp5720
I1607448851
aI233472108
abag5702
abag1
(g16
g3
Ntp5721
Rp5722
(lp5723
g1
(g20
g3
Ntp5724
Rp5725
(lp5726
F-0.17921314276214995
aF0.0335054258928981
aF0.33105086149989027
abag1
(g24
g3
Ntp5727
Rp5728
(lp5729
F0.09952038626626558
aF0.6964511073034094
aF-0.06869059802368688
aF0.707342314297976
abababag1
(g2
g3
Ntp5730
Rp5731
(lp5732
g1
(g7
g3
Ntp5733
Rp5734
(lp5735
I0
ag1
(g11
g3
Ntp5736
Rp5737
(lp5738
I1607448851
aI449105978
abaS'world'
p5739
abag1
(g16
g3
Ntp5740
Rp5741
(lp5742
g1
(g20
g3
Ntp5743
Rp5744
(lp5745
F-0.18220673128099263
aF0.03398651731389044
aF0.33404120294307366
abag1
(g24
g3
Ntp5746
Rp5747
(lp5748
F0.08746267394732421
aF0.6968571750066177
aF-0.057009883870398105
aF0.7095704555918773
abababag1
(g2
g3
Ntp5749
Rp5750
(lp5751
g1
(g7
g3
Ntp5752
Rp5753
(lp5754
I0
ag1
(g11
g3
Ntp5755
Rp5756
(lp5757
I1607448851
aI449105978
abag5739
abag1
(g16
g3
Ntp5758
Rp5759
(lp5760
g1
(g20
g3
Ntp5761
Rp5762
(lp5763
F-0.18220673128099263
aF0.03398651731389044
aF0.33104120294307365
abag1
(g24
g3
Ntp5764
Rp5765
(lp5766
F0.08746267394732421
aF0.6968571750066177
aF-0.057009883870398105
aF0.7095704555918773
abababag1
(g2
g3
Ntp5767
Rp5768
(lp5769
g1
(g7
g3
Ntp5770
Rp5771
(lp5772
I0
ag1
(g11
g3
Ntp5773
Rp5774
(lp5775
I1607448851
aI721230030
abaS'world'
p5776
abag1
(g16
g3
Ntp5777
Rp5778
(lp5779
g1
(g20
g3
Ntp5780
Rp5781
(lp5782
F-0.18506018149496775
aF0.03494597383433912
aF0.33413897649970625
abag1
(g24
g3
Ntp5783
Rp5784
(lp5785
F0.08540614002077165
aF0.6947967106562186
aF-0.05608083811227954
aF0.7119116951593616
abababag1
(g2
g3
Ntp5786
Rp5787
(lp5788
g1
(g7
g3
Ntp5789
Rp5790
(lp5791
I0
ag1
(g11
g3
Ntp5792
Rp5793
(lp5794
I1607448851
aI721230030
abag5776
abag1
(g16
g3
Ntp5795
Rp5796
(lp5797
g1
(g20
g3
Ntp5798
Rp5799
(lp5800
F-0.18506018149496775
aF0.03494597383433912
aF0.33113897649970625
abag1
(g24
g3
Ntp5801
Rp5802
(lp5803
F0.08540614002077165
aF0.6947967106562186
aF-0.05608083811227954
aF0.7119116951593616
abababag1
(g2
g3
Ntp5804
Rp5805
(lp5806
g1
(g7
g3
Ntp5807
Rp5808
(lp5809
I0
ag1
(g11
g3
Ntp5810
Rp5811
(lp5812
I1607448851
aI809359073
abaS'world'
p5813
abag1
(g16
g3
Ntp5814
Rp5815
(lp5816
g1
(g20
g3
Ntp5817
Rp5818
(lp5819
F-0.1878064844450498
aF0.036635750080147696
aF0.3342996319415168
abag1
(g24
g3
Ntp5820
Rp5821
(lp5822
F0.08220116911536805
aF0.6916320497034372
aF-0.057841202115544464
aF0.7152219732061633
abababag1
(g2
g3
Ntp5823
Rp5824
(lp5825
g1
(g7
g3
Ntp5826
Rp5827
(lp5828
I0
ag1
(g11
g3
Ntp5829
Rp5830
(lp5831
I1607448851
aI809359073
abag5813
abag1
(g16
g3
Ntp5832
Rp5833
(lp5834
g1
(g20
g3
Ntp5835
Rp5836
(lp5837
F-0.1878064844450498
aF0.036635750080147696
aF0.3312996319415168
abag1
(g24
g3
Ntp5838
Rp5839
(lp5840
F0.08220116911536805
aF0.6916320497034372
aF-0.057841202115544464
aF0.7152219732061633
abababag1
(g2
g3
Ntp5841
Rp5842
(lp5843
g1
(g7
g3
Ntp5844
Rp5845
(lp5846
I0
ag1
(g11
g3
Ntp5847
Rp5848
(lp5849
I1607448851
aI881038904
abaS'world'
p5850
abag1
(g16
g3
Ntp5851
Rp5852
(lp5853
g1
(g20
g3
Ntp5854
Rp5855
(lp5856
F-0.19022479246990667
aF0.03878849512612364
aF0.3342095685877472
abag1
(g24
g3
Ntp5857
Rp5858
(lp5859
F0.07881294762897434
aF0.68746297059565
aF-0.06079883930059039
aF0.7193654735150543
abababag1
(g2
g3
Ntp5860
Rp5861
(lp5862
g1
(g7
g3
Ntp5863
Rp5864
(lp5865
I0
ag1
(g11
g3
Ntp5866
Rp5867
(lp5868
I1607448851
aI881038904
abag5850
abag1
(g16
g3
Ntp5869
Rp5870
(lp5871
g1
(g20
g3
Ntp5872
Rp5873
(lp5874
F-0.19022479246990667
aF0.03878849512612364
aF0.3312095685877472
abag1
(g24
g3
Ntp5875
Rp5876
(lp5877
F0.07881294762897434
aF0.68746297059565
aF-0.06079883930059039
aF0.7193654735150543
abababag1
(g2
g3
Ntp5878
Rp5879
(lp5880
g1
(g7
g3
Ntp5881
Rp5882
(lp5883
I0
ag1
(g11
g3
Ntp5884
Rp5885
(lp5886
I1607448851
aI953555107
abaS'world'
p5887
abag1
(g16
g3
Ntp5888
Rp5889
(lp5890
g1
(g20
g3
Ntp5891
Rp5892
(lp5893
F-0.19246737706679054
aF0.04079979150252422
aF0.33423997998965804
abag1
(g24
g3
Ntp5894
Rp5895
(lp5896
F0.07591721276016672
aF0.6839474738079072
aF-0.06331325879265075
aF0.7228027816351876
abababag1
(g2
g3
Ntp5897
Rp5898
(lp5899
g1
(g7
g3
Ntp5900
Rp5901
(lp5902
I0
ag1
(g11
g3
Ntp5903
Rp5904
(lp5905
I1607448851
aI953555107
abag5887
abag1
(g16
g3
Ntp5906
Rp5907
(lp5908
g1
(g20
g3
Ntp5909
Rp5910
(lp5911
F-0.19246737706679054
aF0.04079979150252422
aF0.33123997998965804
abag1
(g24
g3
Ntp5912
Rp5913
(lp5914
F0.07591721276016672
aF0.6839474738079072
aF-0.06331325879265075
aF0.7228027816351876
abababag1
(g2
g3
Ntp5915
Rp5916
(lp5917
g1
(g7
g3
Ntp5918
Rp5919
(lp5920
I0
ag1
(g11
g3
Ntp5921
Rp5922
(lp5923
I1607448852
aI73318004
abaS'world'
p5924
abag1
(g16
g3
Ntp5925
Rp5926
(lp5927
g1
(g20
g3
Ntp5928
Rp5929
(lp5930
F-0.19548652605352404
aF0.041550066598141255
aF0.3340992070601673
abag1
(g24
g3
Ntp5931
Rp5932
(lp5933
F0.07350582178897626
aF0.6828475726516793
aF-0.06273233786589075
aF0.7241413815497059
abababag1
(g2
g3
Ntp5934
Rp5935
(lp5936
g1
(g7
g3
Ntp5937
Rp5938
(lp5939
I0
ag1
(g11
g3
Ntp5940
Rp5941
(lp5942
I1607448852
aI73318004
abag5924
abag1
(g16
g3
Ntp5943
Rp5944
(lp5945
g1
(g20
g3
Ntp5946
Rp5947
(lp5948
F-0.19548652605352404
aF0.041550066598141255
aF0.3310992070601673
abag1
(g24
g3
Ntp5949
Rp5950
(lp5951
F0.07350582178897626
aF0.6828475726516793
aF-0.06273233786589075
aF0.7241413815497059
abababag1
(g2
g3
Ntp5952
Rp5953
(lp5954
g1
(g7
g3
Ntp5955
Rp5956
(lp5957
I0
ag1
(g11
g3
Ntp5958
Rp5959
(lp5960
I1607448852
aI193239927
abaS'world'
p5961
abag1
(g16
g3
Ntp5962
Rp5963
(lp5964
g1
(g20
g3
Ntp5965
Rp5966
(lp5967
F-0.1985114628758963
aF0.040731928540315716
aF0.3340678740811108
abag1
(g24
g3
Ntp5968
Rp5969
(lp5970
F0.07234375501231169
aF0.6848490613117943
aF-0.05901268360298211
aF0.7226794915486722
abababag1
(g2
g3
Ntp5971
Rp5972
(lp5973
g1
(g7
g3
Ntp5974
Rp5975
(lp5976
I0
ag1
(g11
g3
Ntp5977
Rp5978
(lp5979
I1607448852
aI193239927
abag5961
abag1
(g16
g3
Ntp5980
Rp5981
(lp5982
g1
(g20
g3
Ntp5983
Rp5984
(lp5985
F-0.1985114628758963
aF0.040731928540315716
aF0.3310678740811108
abag1
(g24
g3
Ntp5986
Rp5987
(lp5988
F0.07234375501231169
aF0.6848490613117943
aF-0.05901268360298211
aF0.7226794915486722
abababag1
(g2
g3
Ntp5989
Rp5990
(lp5991
g1
(g7
g3
Ntp5992
Rp5993
(lp5994
I0
ag1
(g11
g3
Ntp5995
Rp5996
(lp5997
I1607448852
aI369329929
abaS'world'
p5998
abag1
(g16
g3
Ntp5999
Rp6000
(lp6001
g1
(g20
g3
Ntp6002
Rp6003
(lp6004
F-0.20140877952935324
aF0.039888849798249276
aF0.3338746968575781
abag1
(g24
g3
Ntp6005
Rp6006
(lp6007
F0.06839490132112933
aF0.684679516899013
aF-0.05324382681684699
aF0.7236720193002524
abababag1
(g2
g3
Ntp6008
Rp6009
(lp6010
g1
(g7
g3
Ntp6011
Rp6012
(lp6013
I0
ag1
(g11
g3
Ntp6014
Rp6015
(lp6016
I1607448852
aI369329929
abag5998
abag1
(g16
g3
Ntp6017
Rp6018
(lp6019
g1
(g20
g3
Ntp6020
Rp6021
(lp6022
F-0.20140877952935324
aF0.039888849798249276
aF0.3308746968575781
abag1
(g24
g3
Ntp6023
Rp6024
(lp6025
F0.06839490132112933
aF0.684679516899013
aF-0.05324382681684699
aF0.7236720193002524
abababag1
(g2
g3
Ntp6026
Rp6027
(lp6028
g1
(g7
g3
Ntp6029
Rp6030
(lp6031
I0
ag1
(g11
g3
Ntp6032
Rp6033
(lp6034
I1607448852
aI481282949
abaS'world'
p6035
abag1
(g16
g3
Ntp6036
Rp6037
(lp6038
g1
(g20
g3
Ntp6039
Rp6040
(lp6041
F-0.20445459477340938
aF0.03984830996709283
aF0.33373416968823355
abag1
(g24
g3
Ntp6042
Rp6043
(lp6044
F0.05674304098910165
aF0.6856813397442075
aF-0.04120492164215243
aF0.7245160329891687
abababag1
(g2
g3
Ntp6045
Rp6046
(lp6047
g1
(g7
g3
Ntp6048
Rp6049
(lp6050
I0
ag1
(g11
g3
Ntp6051
Rp6052
(lp6053
I1607448852
aI481282949
abag6035
abag1
(g16
g3
Ntp6054
Rp6055
(lp6056
g1
(g20
g3
Ntp6057
Rp6058
(lp6059
F-0.20445459477340938
aF0.03984830996709283
aF0.33073416968823355
abag1
(g24
g3
Ntp6060
Rp6061
(lp6062
F0.05674304098910165
aF0.6856813397442075
aF-0.04120492164215243
aF0.7245160329891687
abababag1
(g2
g3
Ntp6063
Rp6064
(lp6065
g1
(g7
g3
Ntp6066
Rp6067
(lp6068
I0
ag1
(g11
g3
Ntp6069
Rp6070
(lp6071
I1607448852
aI817351102
abaS'world'
p6072
abag1
(g16
g3
Ntp6073
Rp6074
(lp6075
g1
(g20
g3
Ntp6076
Rp6077
(lp6078
F-0.20752959195066753
aF0.039607131289132534
aF0.3336771915225707
abag1
(g24
g3
Ntp6079
Rp6080
(lp6081
F0.04485519147194962
aF0.6868227914142345
aF-0.029476853856227243
aF0.7248403824834214
abababag1
(g2
g3
Ntp6082
Rp6083
(lp6084
g1
(g7
g3
Ntp6085
Rp6086
(lp6087
I0
ag1
(g11
g3
Ntp6088
Rp6089
(lp6090
I1607448852
aI817351102
abag6072
abag1
(g16
g3
Ntp6091
Rp6092
(lp6093
g1
(g20
g3
Ntp6094
Rp6095
(lp6096
F-0.20752959195066753
aF0.039607131289132534
aF0.3306771915225707
abag1
(g24
g3
Ntp6097
Rp6098
(lp6099
F0.04485519147194962
aF0.6868227914142345
aF-0.029476853856227243
aF0.7248403824834214
abababag1
(g2
g3
Ntp6100
Rp6101
(lp6102
g1
(g7
g3
Ntp6103
Rp6104
(lp6105
I0
ag1
(g11
g3
Ntp6106
Rp6107
(lp6108
I1607448853
aI33584117
abaS'world'
p6109
abag1
(g16
g3
Ntp6110
Rp6111
(lp6112
g1
(g20
g3
Ntp6113
Rp6114
(lp6115
F-0.21061177481886986
aF0.03943712586280753
aF0.3335009970127799
abag1
(g24
g3
Ntp6116
Rp6117
(lp6118
F0.04323803030104153
aF0.687293089921759
aF-0.02724518561692002
aF0.7245801412833414
abababag1
(g2
g3
Ntp6119
Rp6120
(lp6121
g1
(g7
g3
Ntp6122
Rp6123
(lp6124
I0
ag1
(g11
g3
Ntp6125
Rp6126
(lp6127
I1607448853
aI33584117
abag6109
abag1
(g16
g3
Ntp6128
Rp6129
(lp6130
g1
(g20
g3
Ntp6131
Rp6132
(lp6133
F-0.21061177481886986
aF0.03943712586280753
aF0.3305009970127799
abag1
(g24
g3
Ntp6134
Rp6135
(lp6136
F0.04323803030104153
aF0.687293089921759
aF-0.02724518561692002
aF0.7245801412833414
abababag1
(g2
g3
Ntp6137
Rp6138
(lp6139
g1
(g7
g3
Ntp6140
Rp6141
(lp6142
I0
ag1
(g11
g3
Ntp6143
Rp6144
(lp6145
I1607448853
aI209177970
abaS'world'
p6146
abag1
(g16
g3
Ntp6147
Rp6148
(lp6149
g1
(g20
g3
Ntp6150
Rp6151
(lp6152
F-0.21366327726530376
aF0.039674817089226495
aF0.33326484678691687
abag1
(g24
g3
Ntp6153
Rp6154
(lp6155
F0.04133880020923925
aF0.6873433709222545
aF-0.026115637776779565
aF0.7246848746248294
abababag1
(g2
g3
Ntp6156
Rp6157
(lp6158
g1
(g7
g3
Ntp6159
Rp6160
(lp6161
I0
ag1
(g11
g3
Ntp6162
Rp6163
(lp6164
I1607448853
aI209177970
abag6146
abag1
(g16
g3
Ntp6165
Rp6166
(lp6167
g1
(g20
g3
Ntp6168
Rp6169
(lp6170
F-0.21366327726530376
aF0.039674817089226495
aF0.33026484678691687
abag1
(g24
g3
Ntp6171
Rp6172
(lp6173
F0.04133880020923925
aF0.6873433709222545
aF-0.026115637776779565
aF0.7246848746248294
abababag1
(g2
g3
Ntp6174
Rp6175
(lp6176
g1
(g7
g3
Ntp6177
Rp6178
(lp6179
I0
ag1
(g11
g3
Ntp6180
Rp6181
(lp6182
I1607448853
aI489088058
abaS'world'
p6183
abag1
(g16
g3
Ntp6184
Rp6185
(lp6186
g1
(g20
g3
Ntp6187
Rp6188
(lp6189
F-0.21667929299920846
aF0.03998498776389594
aF0.33323645976485156
abag1
(g24
g3
Ntp6190
Rp6191
(lp6192
F0.040454178963432036
aF0.6885830663073975
aF-0.025950564939325536
aF0.7235629816252533
abababag1
(g2
g3
Ntp6193
Rp6194
(lp6195
g1
(g7
g3
Ntp6196
Rp6197
(lp6198
I0
ag1
(g11
g3
Ntp6199
Rp6200
(lp6201
I1607448853
aI489088058
abag6183
abag1
(g16
g3
Ntp6202
Rp6203
(lp6204
g1
(g20
g3
Ntp6205
Rp6206
(lp6207
F-0.21667929299920846
aF0.03998498776389594
aF0.33023645976485155
abag1
(g24
g3
Ntp6208
Rp6209
(lp6210
F0.040454178963432036
aF0.6885830663073975
aF-0.025950564939325536
aF0.7235629816252533
abababag1
(g2
g3
Ntp6211
Rp6212
(lp6213
g1
(g7
g3
Ntp6214
Rp6215
(lp6216
I0
ag1
(g11
g3
Ntp6217
Rp6218
(lp6219
I1607448853
aI609045028
abaS'world'
p6220
abag1
(g16
g3
Ntp6221
Rp6222
(lp6223
g1
(g20
g3
Ntp6224
Rp6225
(lp6226
F-0.2198491319195962
aF0.04054880182803364
aF0.33312896913379547
abag1
(g24
g3
Ntp6227
Rp6228
(lp6229
F0.03884808101653729
aF0.6905520617601466
aF-0.026189919085384213
aF0.7217636488064803
abababag1
(g2
g3
Ntp6230
Rp6231
(lp6232
g1
(g7
g3
Ntp6233
Rp6234
(lp6235
I0
ag1
(g11
g3
Ntp6236
Rp6237
(lp6238
I1607448853
aI609045028
abag6220
abag1
(g16
g3
Ntp6239
Rp6240
(lp6241
g1
(g20
g3
Ntp6242
Rp6243
(lp6244
F-0.2198491319195962
aF0.04054880182803364
aF0.33012896913379547
abag1
(g24
g3
Ntp6245
Rp6246
(lp6247
F0.03884808101653729
aF0.6905520617601466
aF-0.026189919085384213
aF0.7217636488064803
abababag1
(g2
g3
Ntp6248
Rp6249
(lp6250
g1
(g7
g3
Ntp6251
Rp6252
(lp6253
I0
ag1
(g11
g3
Ntp6254
Rp6255
(lp6256
I1607448853
aI873323917
abaS'world'
p6257
abag1
(g16
g3
Ntp6258
Rp6259
(lp6260
g1
(g20
g3
Ntp6261
Rp6262
(lp6263
F-0.22287488170132
aF0.04036418799217243
aF0.33299008570888156
abag1
(g24
g3
Ntp6264
Rp6265
(lp6266
F0.04858482355708203
aF0.6907709605155327
aF-0.03528912625702144
aF0.7205759311803246
abababag1
(g2
g3
Ntp6267
Rp6268
(lp6269
g1
(g7
g3
Ntp6270
Rp6271
(lp6272
I0
ag1
(g11
g3
Ntp6273
Rp6274
(lp6275
I1607448853
aI873323917
abag6257
abag1
(g16
g3
Ntp6276
Rp6277
(lp6278
g1
(g20
g3
Ntp6279
Rp6280
(lp6281
F-0.22287488170132
aF0.04036418799217243
aF0.32999008570888155
abag1
(g24
g3
Ntp6282
Rp6283
(lp6284
F0.04858482355708203
aF0.6907709605155327
aF-0.03528912625702144
aF0.7205759311803246
abababag1
(g2
g3
Ntp6285
Rp6286
(lp6287
g1
(g7
g3
Ntp6288
Rp6289
(lp6290
I0
ag1
(g11
g3
Ntp6291
Rp6292
(lp6293
I1607448854
aI89190006
abaS'world'
p6294
abag1
(g16
g3
Ntp6295
Rp6296
(lp6297
g1
(g20
g3
Ntp6298
Rp6299
(lp6300
F-0.22592558485866165
aF0.040107966744990634
aF0.3328645575152955
abag1
(g24
g3
Ntp6301
Rp6302
(lp6303
F0.055439665714338525
aF0.6908609598244586
aF-0.0410204320363483
aF0.7196908376597981
abababag1
(g2
g3
Ntp6304
Rp6305
(lp6306
g1
(g7
g3
Ntp6307
Rp6308
(lp6309
I0
ag1
(g11
g3
Ntp6310
Rp6311
(lp6312
I1607448854
aI89190006
abag6294
abag1
(g16
g3
Ntp6313
Rp6314
(lp6315
g1
(g20
g3
Ntp6316
Rp6317
(lp6318
F-0.22592558485866165
aF0.040107966744990634
aF0.3298645575152955
abag1
(g24
g3
Ntp6319
Rp6320
(lp6321
F0.055439665714338525
aF0.6908609598244586
aF-0.0410204320363483
aF0.7196908376597981
abababag1
(g2
g3
Ntp6322
Rp6323
(lp6324
g1
(g7
g3
Ntp6325
Rp6326
(lp6327
I0
ag1
(g11
g3
Ntp6328
Rp6329
(lp6330
I1607448854
aI369026899
abaS'world'
p6331
abag1
(g16
g3
Ntp6332
Rp6333
(lp6334
g1
(g20
g3
Ntp6335
Rp6336
(lp6337
F-0.22900196128981887
aF0.03965123243011373
aF0.3327578505965625
abag1
(g24
g3
Ntp6338
Rp6339
(lp6340
F0.053666501086812445
aF0.690936688546892
aF-0.03851770163587444
aF0.7198908151529955
abababag1
(g2
g3
Ntp6341
Rp6342
(lp6343
g1
(g7
g3
Ntp6344
Rp6345
(lp6346
I0
ag1
(g11
g3
Ntp6347
Rp6348
(lp6349
I1607448854
aI369026899
abag6331
abag1
(g16
g3
Ntp6350
Rp6351
(lp6352
g1
(g20
g3
Ntp6353
Rp6354
(lp6355
F-0.22900196128981887
aF0.03965123243011373
aF0.3297578505965625
abag1
(g24
g3
Ntp6356
Rp6357
(lp6358
F0.053666501086812445
aF0.690936688546892
aF-0.03851770163587444
aF0.7198908151529955
abababag1
(g2
g3
Ntp6359
Rp6360
(lp6361
g1
(g7
g3
Ntp6362
Rp6363
(lp6364
I0
ag1
(g11
g3
Ntp6365
Rp6366
(lp6367
I1607448854
aI473170042
abaS'world'
p6368
abag1
(g16
g3
Ntp6369
Rp6370
(lp6371
g1
(g20
g3
Ntp6372
Rp6373
(lp6374
F-0.232134468575012
aF0.039835911822083125
aF0.33260005119473907
abag1
(g24
g3
Ntp6375
Rp6376
(lp6377
F0.051968799474280465
aF0.6909625854247684
aF-0.036820216772196164
aF0.7200793158126196
abababag1
(g2
g3
Ntp6378
Rp6379
(lp6380
g1
(g7
g3
Ntp6381
Rp6382
(lp6383
I0
ag1
(g11
g3
Ntp6384
Rp6385
(lp6386
I1607448854
aI473170042
abag6368
abag1
(g16
g3
Ntp6387
Rp6388
(lp6389
g1
(g20
g3
Ntp6390
Rp6391
(lp6392
F-0.232134468575012
aF0.039835911822083125
aF0.32960005119473906
abag1
(g24
g3
Ntp6393
Rp6394
(lp6395
F0.051968799474280465
aF0.6909625854247684
aF-0.036820216772196164
aF0.7200793158126196
abababag1
(g2
g3
Ntp6396
Rp6397
(lp6398
g1
(g7
g3
Ntp6399
Rp6400
(lp6401
I0
ag1
(g11
g3
Ntp6402
Rp6403
(lp6404
I1607448854
aI569076061
abaS'world'
p6405
abag1
(g16
g3
Ntp6406
Rp6407
(lp6408
g1
(g20
g3
Ntp6409
Rp6410
(lp6411
F-0.23510693699089652
aF0.041032053442030196
aF0.3323060050247615
abag1
(g24
g3
Ntp6412
Rp6413
(lp6414
F0.049001164516388925
aF0.6880723500834435
aF-0.03794273957947427
aF0.7229907851694165
abababag1
(g2
g3
Ntp6415
Rp6416
(lp6417
g1
(g7
g3
Ntp6418
Rp6419
(lp6420
I0
ag1
(g11
g3
Ntp6421
Rp6422
(lp6423
I1607448854
aI569076061
abag6405
abag1
(g16
g3
Ntp6424
Rp6425
(lp6426
g1
(g20
g3
Ntp6427
Rp6428
(lp6429
F-0.23510693699089652
aF0.041032053442030196
aF0.3293060050247615
abag1
(g24
g3
Ntp6430
Rp6431
(lp6432
F0.049001164516388925
aF0.6880723500834435
aF-0.03794273957947427
aF0.7229907851694165
abababag1
(g2
g3
Ntp6433
Rp6434
(lp6435
g1
(g7
g3
Ntp6436
Rp6437
(lp6438
I0
ag1
(g11
g3
Ntp6439
Rp6440
(lp6441
I1607448854
aI657037019
abaS'world'
p6442
abag1
(g16
g3
Ntp6443
Rp6444
(lp6445
g1
(g20
g3
Ntp6446
Rp6447
(lp6448
F-0.2379446004514703
aF0.042814352511432695
aF0.33216677151988555
abag1
(g24
g3
Ntp6449
Rp6450
(lp6451
F0.045770375870850484
aF0.6841307921736485
aF-0.040223170932023
aF0.7268096232251405
abababag1
(g2
g3
Ntp6452
Rp6453
(lp6454
g1
(g7
g3
Ntp6455
Rp6456
(lp6457
I0
ag1
(g11
g3
Ntp6458
Rp6459
(lp6460
I1607448854
aI657037019
abag6442
abag1
(g16
g3
Ntp6461
Rp6462
(lp6463
g1
(g20
g3
Ntp6464
Rp6465
(lp6466
F-0.2379446004514703
aF0.042814352511432695
aF0.32916677151988555
abag1
(g24
g3
Ntp6467
Rp6468
(lp6469
F0.045770375870850484
aF0.6841307921736485
aF-0.040223170932023
aF0.7268096232251405
abababag1
(g2
g3
Ntp6470
Rp6471
(lp6472
g1
(g7
g3
Ntp6473
Rp6474
(lp6475
I0
ag1
(g11
g3
Ntp6476
Rp6477
(lp6478
I1607448854
aI737217903
abaS'world'
p6479
abag1
(g16
g3
Ntp6480
Rp6481
(lp6482
g1
(g20
g3
Ntp6483
Rp6484
(lp6485
F-0.2409668486212234
aF0.04388487761692207
aF0.33206888158815207
abag1
(g24
g3
Ntp6486
Rp6487
(lp6488
F0.04315034041172287
aF0.6818609104157447
aF-0.04083801099325454
aF0.729065157463638
abababag1
(g2
g3
Ntp6489
Rp6490
(lp6491
g1
(g7
g3
Ntp6492
Rp6493
(lp6494
I0
ag1
(g11
g3
Ntp6495
Rp6496
(lp6497
I1607448854
aI737217903
abag6479
abag1
(g16
g3
Ntp6498
Rp6499
(lp6500
g1
(g20
g3
Ntp6501
Rp6502
(lp6503
F-0.2409668486212234
aF0.04388487761692207
aF0.32906888158815206
abag1
(g24
g3
Ntp6504
Rp6505
(lp6506
F0.04315034041172287
aF0.6818609104157447
aF-0.04083801099325454
aF0.729065157463638
abababag1
(g2
g3
Ntp6507
Rp6508
(lp6509
g1
(g7
g3
Ntp6510
Rp6511
(lp6512
I0
ag1
(g11
g3
Ntp6513
Rp6514
(lp6515
I1607448854
aI889121055
abaS'world'
p6516
abag1
(g16
g3
Ntp6517
Rp6518
(lp6519
g1
(g20
g3
Ntp6520
Rp6521
(lp6522
F-0.24401828061491426
aF0.0435245892839929
aF0.33197187162513264
abag1
(g24
g3
Ntp6523
Rp6524
(lp6525
F0.04136603383712867
aF0.6822261465960783
aF-0.03885471152631824
aF0.7289352835042756
abababag1
(g2
g3
Ntp6526
Rp6527
(lp6528
g1
(g7
g3
Ntp6529
Rp6530
(lp6531
I0
ag1
(g11
g3
Ntp6532
Rp6533
(lp6534
I1607448854
aI889121055
abag6516
abag1
(g16
g3
Ntp6535
Rp6536
(lp6537
g1
(g20
g3
Ntp6538
Rp6539
(lp6540
F-0.24401828061491426
aF0.0435245892839929
aF0.32897187162513264
abag1
(g24
g3
Ntp6541
Rp6542
(lp6543
F0.04136603383712867
aF0.6822261465960783
aF-0.03885471152631824
aF0.7289352835042756
abababag1
(g2
g3
Ntp6544
Rp6545
(lp6546
g1
(g7
g3
Ntp6547
Rp6548
(lp6549
I0
ag1
(g11
g3
Ntp6550
Rp6551
(lp6552
I1607448855
aI33570051
abaS'world'
p6553
abag1
(g16
g3
Ntp6554
Rp6555
(lp6556
g1
(g20
g3
Ntp6557
Rp6558
(lp6559
F-0.24690883554638307
aF0.042652588602683866
aF0.3317860702202955
abag1
(g24
g3
Ntp6560
Rp6561
(lp6562
F0.04024766051655308
aF0.6825861826770234
aF-0.03529406598695034
aF0.7288419293286181
abababag1
(g2
g3
Ntp6563
Rp6564
(lp6565
g1
(g7
g3
Ntp6566
Rp6567
(lp6568
I0
ag1
(g11
g3
Ntp6569
Rp6570
(lp6571
I1607448855
aI33570051
abag6553
abag1
(g16
g3
Ntp6572
Rp6573
(lp6574
g1
(g20
g3
Ntp6575
Rp6576
(lp6577
F-0.24690883554638307
aF0.042652588602683866
aF0.3287860702202955
abag1
(g24
g3
Ntp6578
Rp6579
(lp6580
F0.04024766051655308
aF0.6825861826770234
aF-0.03529406598695034
aF0.7288419293286181
abababag1
(g2
g3
Ntp6581
Rp6582
(lp6583
g1
(g7
g3
Ntp6584
Rp6585
(lp6586
I0
ag1
(g11
g3
Ntp6587
Rp6588
(lp6589
I1607448855
aI217266082
abaS'world'
p6590
abag1
(g16
g3
Ntp6591
Rp6592
(lp6593
g1
(g20
g3
Ntp6594
Rp6595
(lp6596
F-0.24996349955848624
aF0.042492758796572945
aF0.3317776333063709
abag1
(g24
g3
Ntp6597
Rp6598
(lp6599
F0.03910444549961591
aF0.6835559369659038
aF-0.033064021985470496
aF0.7280995081930611
abababag1
(g2
g3
Ntp6600
Rp6601
(lp6602
g1
(g7
g3
Ntp6603
Rp6604
(lp6605
I0
ag1
(g11
g3
Ntp6606
Rp6607
(lp6608
I1607448855
aI217266082
abag6590
abag1
(g16
g3
Ntp6609
Rp6610
(lp6611
g1
(g20
g3
Ntp6612
Rp6613
(lp6614
F-0.24996349955848624
aF0.042492758796572945
aF0.3287776333063709
abag1
(g24
g3
Ntp6615
Rp6616
(lp6617
F0.03910444549961591
aF0.6835559369659038
aF-0.033064021985470496
aF0.7280995081930611
abababag1
(g2
g3
Ntp6618
Rp6619
(lp6620
g1
(g7
g3
Ntp6621
Rp6622
(lp6623
I0
ag1
(g11
g3
Ntp6624
Rp6625
(lp6626
I1607448857
aI729196071
abaS'world'
p6627
abag1
(g16
g3
Ntp6628
Rp6629
(lp6630
g1
(g20
g3
Ntp6631
Rp6632
(lp6633
F-0.24980912916322467
aF0.04245929667753413
aF0.3350232657319608
abag1
(g24
g3
Ntp6634
Rp6635
(lp6636
F0.04096128900211774
aF0.6863154398113233
aF-0.03154607624774968
aF0.7254640824694537
abababag1
(g2
g3
Ntp6637
Rp6638
(lp6639
g1
(g7
g3
Ntp6640
Rp6641
(lp6642
I0
ag1
(g11
g3
Ntp6643
Rp6644
(lp6645
I1607448857
aI729196071
abag6627
abag1
(g16
g3
Ntp6646
Rp6647
(lp6648
g1
(g20
g3
Ntp6649
Rp6650
(lp6651
F-0.24980912916322467
aF0.04245929667753413
aF0.3320232657319608
abag1
(g24
g3
Ntp6652
Rp6653
(lp6654
F0.04096128900211774
aF0.6863154398113233
aF-0.03154607624774968
aF0.7254640824694537
abababag1
(g2
g3
Ntp6655
Rp6656
(lp6657
g1
(g7
g3
Ntp6658
Rp6659
(lp6660
I0
ag1
(g11
g3
Ntp6661
Rp6662
(lp6663
I1607448857
aI800950050
abaS'world'
p6664
abag1
(g16
g3
Ntp6665
Rp6666
(lp6667
g1
(g20
g3
Ntp6668
Rp6669
(lp6670
F-0.24945299068179377
aF0.042235615694664004
aF0.3380104843087333
abag1
(g24
g3
Ntp6671
Rp6672
(lp6673
F0.04263270383626795
aF0.6886557722467549
aF-0.030065309293521327
aF0.7232093452741881
abababag1
(g2
g3
Ntp6674
Rp6675
(lp6676
g1
(g7
g3
Ntp6677
Rp6678
(lp6679
I0
ag1
(g11
g3
Ntp6680
Rp6681
(lp6682
I1607448857
aI800950050
abag6664
abag1
(g16
g3
Ntp6683
Rp6684
(lp6685
g1
(g20
g3
Ntp6686
Rp6687
(lp6688
F-0.24945299068179377
aF0.042235615694664004
aF0.3350104843087333
abag1
(g24
g3
Ntp6689
Rp6690
(lp6691
F0.04263270383626795
aF0.6886557722467549
aF-0.030065309293521327
aF0.7232093452741881
abababag1
(g2
g3
Ntp6692
Rp6693
(lp6694
g1
(g7
g3
Ntp6695
Rp6696
(lp6697
I0
ag1
(g11
g3
Ntp6698
Rp6699
(lp6700
I1607448857
aI880884885
abaS'world'
p6701
abag1
(g16
g3
Ntp6702
Rp6703
(lp6704
g1
(g20
g3
Ntp6705
Rp6706
(lp6707
F-0.2488294307677507
aF0.04173973554668318
aF0.34113562197014397
abag1
(g24
g3
Ntp6708
Rp6709
(lp6710
F0.044214972406191856
aF0.6909448565057963
aF-0.028547632782807385
aF0.7209890943320866
abababag1
(g2
g3
Ntp6711
Rp6712
(lp6713
g1
(g7
g3
Ntp6714
Rp6715
(lp6716
I0
ag1
(g11
g3
Ntp6717
Rp6718
(lp6719
I1607448857
aI880884885
abag6701
abag1
(g16
g3
Ntp6720
Rp6721
(lp6722
g1
(g20
g3
Ntp6723
Rp6724
(lp6725
F-0.2488294307677507
aF0.04173973554668318
aF0.33813562197014396
abag1
(g24
g3
Ntp6726
Rp6727
(lp6728
F0.044214972406191856
aF0.6909448565057963
aF-0.028547632782807385
aF0.7209890943320866
abababag1
(g2
g3
Ntp6729
Rp6730
(lp6731
g1
(g7
g3
Ntp6732
Rp6733
(lp6734
I0
ag1
(g11
g3
Ntp6735
Rp6736
(lp6737
I1607448857
aI968926906
abaS'world'
p6738
abag1
(g16
g3
Ntp6739
Rp6740
(lp6741
g1
(g20
g3
Ntp6742
Rp6743
(lp6744
F-0.24826347453803815
aF0.041234078775840156
aF0.3441260328804422
abag1
(g24
g3
Ntp6745
Rp6746
(lp6747
F0.045699499703663646
aF0.6931587005406203
aF-0.027113695194662432
aF0.7188236356190332
abababag1
(g2
g3
Ntp6748
Rp6749
(lp6750
g1
(g7
g3
Ntp6751
Rp6752
(lp6753
I0
ag1
(g11
g3
Ntp6754
Rp6755
(lp6756
I1607448857
aI968926906
abag6738
abag1
(g16
g3
Ntp6757
Rp6758
(lp6759
g1
(g20
g3
Ntp6760
Rp6761
(lp6762
F-0.24826347453803815
aF0.041234078775840156
aF0.3411260328804422
abag1
(g24
g3
Ntp6763
Rp6764
(lp6765
F0.045699499703663646
aF0.6931587005406203
aF-0.027113695194662432
aF0.7188236356190332
abababag1
(g2
g3
Ntp6766
Rp6767
(lp6768
g1
(g7
g3
Ntp6769
Rp6770
(lp6771
I0
ag1
(g11
g3
Ntp6772
Rp6773
(lp6774
I1607448858
aI80801010
abaS'world'
p6775
abag1
(g16
g3
Ntp6776
Rp6777
(lp6778
g1
(g20
g3
Ntp6779
Rp6780
(lp6781
F-0.24791761604559012
aF0.040419883614100996
aF0.3470695149062963
abag1
(g24
g3
Ntp6782
Rp6783
(lp6784
F0.046220176638167174
aF0.695901157490416
aF-0.026412575048868674
aF0.7161617485975663
abababag1
(g2
g3
Ntp6785
Rp6786
(lp6787
g1
(g7
g3
Ntp6788
Rp6789
(lp6790
I0
ag1
(g11
g3
Ntp6791
Rp6792
(lp6793
I1607448858
aI80801010
abag6775
abag1
(g16
g3
Ntp6794
Rp6795
(lp6796
g1
(g20
g3
Ntp6797
Rp6798
(lp6799
F-0.24791761604559012
aF0.040419883614100996
aF0.3440695149062963
abag1
(g24
g3
Ntp6800
Rp6801
(lp6802
F0.046220176638167174
aF0.695901157490416
aF-0.026412575048868674
aF0.7161617485975663
abababag1
(g2
g3
Ntp6803
Rp6804
(lp6805
g1
(g7
g3
Ntp6806
Rp6807
(lp6808
I0
ag1
(g11
g3
Ntp6809
Rp6810
(lp6811
I1607448858
aI169022083
abaS'world'
p6812
abag1
(g16
g3
Ntp6813
Rp6814
(lp6815
g1
(g20
g3
Ntp6816
Rp6817
(lp6818
F-0.24803310902265996
aF0.039116601155770155
aF0.3499255941019801
abag1
(g24
g3
Ntp6819
Rp6820
(lp6821
F0.045522717949272186
aF0.6988215135081486
aF-0.02591983997891869
aF0.7133753123736194
abababag1
(g2
g3
Ntp6822
Rp6823
(lp6824
g1
(g7
g3
Ntp6825
Rp6826
(lp6827
I0
ag1
(g11
g3
Ntp6828
Rp6829
(lp6830
I1607448858
aI169022083
abag6812
abag1
(g16
g3
Ntp6831
Rp6832
(lp6833
g1
(g20
g3
Ntp6834
Rp6835
(lp6836
F-0.24803310902265996
aF0.039116601155770155
aF0.3469255941019801
abag1
(g24
g3
Ntp6837
Rp6838
(lp6839
F0.045522717949272186
aF0.6988215135081486
aF-0.02591983997891869
aF0.7133753123736194
abababag1
(g2
g3
Ntp6840
Rp6841
(lp6842
g1
(g7
g3
Ntp6843
Rp6844
(lp6845
I0
ag1
(g11
g3
Ntp6846
Rp6847
(lp6848
I1607448858
aI249221086
abaS'world'
p6849
abag1
(g16
g3
Ntp6850
Rp6851
(lp6852
g1
(g20
g3
Ntp6853
Rp6854
(lp6855
F-0.24845840620199341
aF0.037333294851187276
aF0.35242287268101
abag1
(g24
g3
Ntp6856
Rp6857
(lp6858
F0.044284678712203145
aF0.700209525836611
aF-0.024683776814878433
aF0.7121349579406832
abababag1
(g2
g3
Ntp6859
Rp6860
(lp6861
g1
(g7
g3
Ntp6862
Rp6863
(lp6864
I0
ag1
(g11
g3
Ntp6865
Rp6866
(lp6867
I1607448858
aI249221086
abag6849
abag1
(g16
g3
Ntp6868
Rp6869
(lp6870
g1
(g20
g3
Ntp6871
Rp6872
(lp6873
F-0.24845840620199341
aF0.037333294851187276
aF0.34942287268101
abag1
(g24
g3
Ntp6874
Rp6875
(lp6876
F0.044284678712203145
aF0.700209525836611
aF-0.024683776814878433
aF0.7121349579406832
abababag1
(g2
g3
Ntp6877
Rp6878
(lp6879
g1
(g7
g3
Ntp6880
Rp6881
(lp6882
I0
ag1
(g11
g3
Ntp6883
Rp6884
(lp6885
I1607448858
aI312686920
abaS'world'
p6886
abag1
(g16
g3
Ntp6887
Rp6888
(lp6889
g1
(g20
g3
Ntp6890
Rp6891
(lp6892
F-0.24944052721570073
aF0.03507433620366304
aF0.3514972913680453
abag1
(g24
g3
Ntp6893
Rp6894
(lp6895
F0.04104017945054297
aF0.7022496385605675
aF-0.0246469476215673
aF0.7103194188427904
abababag1
(g2
g3
Ntp6896
Rp6897
(lp6898
g1
(g7
g3
Ntp6899
Rp6900
(lp6901
I0
ag1
(g11
g3
Ntp6902
Rp6903
(lp6904
I1607448858
aI369041919
abaS'world'
p6905
abag1
(g16
g3
Ntp6906
Rp6907
(lp6908
g1
(g20
g3
Ntp6909
Rp6910
(lp6911
F-0.25088324903802167
aF0.03262211046812771
aF0.3531001235908082
abag1
(g24
g3
Ntp6912
Rp6913
(lp6914
F0.03574490999412912
aF0.7058361299427222
aF-0.027030630715854334
aF0.7069561542840513
abababag1
(g2
g3
Ntp6915
Rp6916
(lp6917
g1
(g7
g3
Ntp6918
Rp6919
(lp6920
I0
ag1
(g11
g3
Ntp6921
Rp6922
(lp6923
I1607448858
aI424976110
abaS'world'
p6924
abag1
(g16
g3
Ntp6925
Rp6926
(lp6927
g1
(g20
g3
Ntp6928
Rp6929
(lp6930
F-0.2525908339326167
aF0.029928209417632506
aF0.35422072221151096
abag1
(g24
g3
Ntp6931
Rp6932
(lp6933
F0.028752499956560536
aF0.7097866664335805
aF-0.031091852679986317
aF0.7031425734488558
abababag1
(g2
g3
Ntp6934
Rp6935
(lp6936
g1
(g7
g3
Ntp6937
Rp6938
(lp6939
I0
ag1
(g11
g3
Ntp6940
Rp6941
(lp6942
I1607448858
aI481043100
abaS'world'
p6943
abag1
(g16
g3
Ntp6944
Rp6945
(lp6946
g1
(g20
g3
Ntp6947
Rp6948
(lp6949
F-0.2542293853422986
aF0.02746798155570142
aF0.35489207899470715
abag1
(g24
g3
Ntp6950
Rp6951
(lp6952
F0.021951357944682323
aF0.7130744618556829
aF-0.0351757941385814
aF0.6998611385413059
abababag1
(g2
g3
Ntp6953
Rp6954
(lp6955
g1
(g7
g3
Ntp6956
Rp6957
(lp6958
I0
ag1
(g11
g3
Ntp6959
Rp6960
(lp6961
I1607448858
aI545154094
abaS'world'
p6962
abag1
(g16
g3
Ntp6963
Rp6964
(lp6965
g1
(g20
g3
Ntp6966
Rp6967
(lp6968
F-0.2557223429640099
aF0.025359688981637603
aF0.35649738296147554
abag1
(g24
g3
Ntp6969
Rp6970
(lp6971
F0.018382132127444193
aF0.7157694052764756
aF-0.035341360106041636
aF0.6971995725432318
abababag1
(g2
g3
Ntp6972
Rp6973
(lp6974
g1
(g7
g3
Ntp6975
Rp6976
(lp6977
I0
ag1
(g11
g3
Ntp6978
Rp6979
(lp6980
I1607448858
aI593125104
abaS'world'
p6981
abag1
(g16
g3
Ntp6982
Rp6983
(lp6984
g1
(g20
g3
Ntp6985
Rp6986
(lp6987
F-0.2565485863375657
aF0.02365632338285678
aF0.3591604119972514
abag1
(g24
g3
Ntp6988
Rp6989
(lp6990
F0.01795117866704401
aF0.7178012255206827
aF-0.03233463106308586
aF0.6952651490327157
abababag1
(g2
g3
Ntp6991
Rp6992
(lp6993
g1
(g7
g3
Ntp6994
Rp6995
(lp6996
I0
ag1
(g11
g3
Ntp6997
Rp6998
(lp6999
I1607448858
aI625273942
abaS'world'
p7000
abag1
(g16
g3
Ntp7001
Rp7002
(lp7003
g1
(g20
g3
Ntp7004
Rp7005
(lp7006
F-0.25710715067161183
aF0.022142908389976994
aF0.3618139535562436
abag1
(g24
g3
Ntp7007
Rp7008
(lp7009
F0.01779708830046795
aF0.719813057328306
aF-0.029592134060273896
aF0.6933085400811541
abababag1
(g2
g3
Ntp7010
Rp7011
(lp7012
g1
(g7
g3
Ntp7013
Rp7014
(lp7015
I0
ag1
(g11
g3
Ntp7016
Rp7017
(lp7018
I1607448858
aI656877994
abaS'world'
p7019
abag1
(g16
g3
Ntp7020
Rp7021
(lp7022
g1
(g20
g3
Ntp7023
Rp7024
(lp7025
F-0.2577931069546089
aF0.020276157093354952
aF0.36495004681067383
abag1
(g24
g3
Ntp7026
Rp7027
(lp7028
F0.017525736682987854
aF0.7221757374114858
aF-0.02626696060377118
aF0.6909884945703043
abababag1
(g2
g3
Ntp7029
Rp7030
(lp7031
g1
(g7
g3
Ntp7032
Rp7033
(lp7034
I0
ag1
(g11
g3
Ntp7035
Rp7036
(lp7037
I1607448858
aI689116954
abaS'world'
p7038
abag1
(g16
g3
Ntp7039
Rp7040
(lp7041
g1
(g20
g3
Ntp7042
Rp7043
(lp7044
F-0.25847523111804477
aF0.01829807983600106
aF0.3681334828042053
abag1
(g24
g3
Ntp7045
Rp7046
(lp7047
F0.017183299501063832
aF0.7245018944256248
aF-0.022968461639021973
aF0.6886756776319855
abababag1
(g2
g3
Ntp7048
Rp7049
(lp7050
g1
(g7
g3
Ntp7051
Rp7052
(lp7053
I0
ag1
(g11
g3
Ntp7054
Rp7055
(lp7056
I1607448858
aI721283912
abaS'world'
p7057
abag1
(g16
g3
Ntp7058
Rp7059
(lp7060
g1
(g20
g3
Ntp7061
Rp7062
(lp7063
F-0.25923996770309543
aF0.01628793904840778
aF0.3709616316034676
abag1
(g24
g3
Ntp7064
Rp7065
(lp7066
F0.01644636302345908
aF0.7264468055365205
aF-0.01982242670611443
aF0.6867398541431583
abababag1
(g2
g3
Ntp7067
Rp7068
(lp7069
g1
(g7
g3
Ntp7070
Rp7071
(lp7072
I0
ag1
(g11
g3
Ntp7073
Rp7074
(lp7075
I1607448858
aI753030061
abaS'world'
p7076
abag1
(g16
g3
Ntp7077
Rp7078
(lp7079
g1
(g20
g3
Ntp7080
Rp7081
(lp7082
F-0.26014364565109943
aF0.014134239478487931
aF0.37305892788954476
abag1
(g24
g3
Ntp7083
Rp7084
(lp7085
F0.014829856787048196
aF0.7273117817424626
aF-0.017238383421413445
aF0.6859303795745576
abababag1
(g2
g3
Ntp7086
Rp7087
(lp7088
g1
(g7
g3
Ntp7089
Rp7090
(lp7091
I0
ag1
(g11
g3
Ntp7092
Rp7093
(lp7094
I1607448858
aI792807102
abaS'world'
p7095
abag1
(g16
g3
Ntp7096
Rp7097
(lp7098
g1
(g20
g3
Ntp7099
Rp7100
(lp7101
F-0.26112544310775
aF0.011215134163280821
aF0.3742682875774901
abag1
(g24
g3
Ntp7102
Rp7103
(lp7104
F0.011029561449202809
aF0.7258494624854691
aF-0.015590878030923103
aF0.6875884169370647
abababag1
(g2
g3
Ntp7105
Rp7106
(lp7107
g1
(g7
g3
Ntp7108
Rp7109
(lp7110
I0
ag1
(g11
g3
Ntp7111
Rp7112
(lp7113
I1607448858
aI832933902
abaS'world'
p7114
abag1
(g16
g3
Ntp7115
Rp7116
(lp7117
g1
(g20
g3
Ntp7118
Rp7119
(lp7120
F-0.2620297690836593
aF0.007969972216072855
aF0.3745527501492271
abag1
(g24
g3
Ntp7121
Rp7122
(lp7123
F0.005812159256188564
aF0.7224229476037647
aF-0.015021826794788435
aF0.6912638051424483
abababag1
(g2
g3
Ntp7124
Rp7125
(lp7126
g1
(g7
g3
Ntp7127
Rp7128
(lp7129
I0
ag1
(g11
g3
Ntp7130
Rp7131
(lp7132
I1607448858
aI872946023
abaS'world'
p7133
abag1
(g16
g3
Ntp7134
Rp7135
(lp7136
g1
(g20
g3
Ntp7137
Rp7138
(lp7139
F-0.26309910665914227
aF0.004376114612383727
aF0.3747103109680502
abag1
(g24
g3
Ntp7140
Rp7141
(lp7142
F-0.00010316035451326222
aF0.7184394858150501
aF-0.014360982056488567
aF0.6954411957700817
abababag1
(g2
g3
Ntp7143
Rp7144
(lp7145
g1
(g7
g3
Ntp7146
Rp7147
(lp7148
I0
ag1
(g11
g3
Ntp7149
Rp7150
(lp7151
I1607448858
aI905278921
abaS'world'
p7152
abag1
(g16
g3
Ntp7153
Rp7154
(lp7155
g1
(g20
g3
Ntp7156
Rp7157
(lp7158
F-0.26408230810672023
aF0.0014701552722338061
aF0.3751438575230834
abag1
(g24
g3
Ntp7159
Rp7160
(lp7161
F-0.00449105507204597
aF0.7158519709482021
aF-0.013258701472700325
aF0.6981117338572476
abababag1
(g2
g3
Ntp7162
Rp7163
(lp7164
g1
(g7
g3
Ntp7165
Rp7166
(lp7167
I0
ag1
(g11
g3
Ntp7168
Rp7169
(lp7170
I1607448858
aI937264919
abaS'world'
p7171
abag1
(g16
g3
Ntp7172
Rp7173
(lp7174
g1
(g20
g3
Ntp7175
Rp7176
(lp7177
F-0.2652678287298393
aF-0.0014470966641842564
aF0.3760541843916798
abag1
(g24
g3
Ntp7178
Rp7179
(lp7180
F-0.0083473773665149
aF0.7143091512327087
aF-0.011365384963260212
aF0.6996882061182293
abababag1
(g2
g3
Ntp7181
Rp7182
(lp7183
g1
(g7
g3
Ntp7184
Rp7185
(lp7186
I0
ag1
(g11
g3
Ntp7187
Rp7188
(lp7189
I1607448858
aI969208955
abaS'world'
p7190
abag1
(g16
g3
Ntp7191
Rp7192
(lp7193
g1
(g20
g3
Ntp7194
Rp7195
(lp7196
F-0.26634076482738683
aF-0.0043740489715512615
aF0.3775373668464993
abag1
(g24
g3
Ntp7197
Rp7198
(lp7199
F-0.011685079836332605
aF0.7135012331918443
aF-0.00898257395182086
aF0.7004989382633898
abababag1
(g2
g3
Ntp7200
Rp7201
(lp7202
g1
(g7
g3
Ntp7203
Rp7204
(lp7205
I0
ag1
(g11
g3
Ntp7206
Rp7207
(lp7208
I1607448859
aI777006
abaS'world'
p7209
abag1
(g16
g3
Ntp7210
Rp7211
(lp7212
g1
(g20
g3
Ntp7213
Rp7214
(lp7215
F-0.2673328800086544
aF-0.007190702137274137
aF0.37941381790958784
abag1
(g24
g3
Ntp7216
Rp7217
(lp7218
F-0.014422873860297218
aF0.7134853272986388
aF-0.006210818754421007
aF0.7004941785408099
abababag1
(g2
g3
Ntp7219
Rp7220
(lp7221
g1
(g7
g3
Ntp7222
Rp7223
(lp7224
I0
ag1
(g11
g3
Ntp7225
Rp7226
(lp7227
I1607448859
aI32669067
abaS'world'
p7228
abag1
(g16
g3
Ntp7229
Rp7230
(lp7231
g1
(g20
g3
Ntp7232
Rp7233
(lp7234
F-0.26839392388494093
aF-0.009859259298140438
aF0.3815595917936551
abag1
(g24
g3
Ntp7235
Rp7236
(lp7237
F-0.016644093532588587
aF0.7142767816221152
aF-0.0030349995752113382
aF0.699658804106409
abababag1
(g2
g3
Ntp7238
Rp7239
(lp7240
g1
(g7
g3
Ntp7241
Rp7242
(lp7243
I0
ag1
(g11
g3
Ntp7244
Rp7245
(lp7246
I1607448859
aI64740896
abaS'world'
p7247
abag1
(g16
g3
Ntp7248
Rp7249
(lp7250
g1
(g20
g3
Ntp7251
Rp7252
(lp7253
F-0.2695049125758009
aF-0.012394837151331104
aF0.3838890916828637
abag1
(g24
g3
Ntp7254
Rp7255
(lp7256
F-0.01838923738380448
aF0.7157182373971086
aF0.00047553580851034756
aF0.6981468430576143
abababag1
(g2
g3
Ntp7257
Rp7258
(lp7259
g1
(g7
g3
Ntp7260
Rp7261
(lp7262
I0
ag1
(g11
g3
Ntp7263
Rp7264
(lp7265
I1607448859
aI97219944
abaS'world'
p7266
abag1
(g16
g3
Ntp7267
Rp7268
(lp7269
g1
(g20
g3
Ntp7270
Rp7271
(lp7272
F-0.2706891310651485
aF-0.014785878403101586
aF0.38620842002524003
abag1
(g24
g3
Ntp7273
Rp7274
(lp7275
F-0.019882242509518935
aF0.7175279237622971
aF0.004089438927693926
aF0.6962339057697612
abababag1
(g2
g3
Ntp7276
Rp7277
(lp7278
g1
(g7
g3
Ntp7279
Rp7280
(lp7281
I0
ag1
(g11
g3
Ntp7282
Rp7283
(lp7284
I1607448859
aI129312038
abaS'world'
p7285
abag1
(g16
g3
Ntp7286
Rp7287
(lp7288
g1
(g20
g3
Ntp7289
Rp7290
(lp7291
F-0.2719543868545183
aF-0.017186872442720175
aF0.3882376176324085
abag1
(g24
g3
Ntp7292
Rp7293
(lp7294
F-0.02156316318750543
aF0.719060320927088
aF0.007615137026369176
aF0.6945713027109975
abababag1
(g2
g3
Ntp7295
Rp7296
(lp7297
g1
(g7
g3
Ntp7298
Rp7299
(lp7300
I0
ag1
(g11
g3
Ntp7301
Rp7302
(lp7303
I1607448859
aI161096096
abaS'world'
p7304
abag1
(g16
g3
Ntp7305
Rp7306
(lp7307
g1
(g20
g3
Ntp7308
Rp7309
(lp7310
F-0.27332508114506965
aF-0.019619097898748366
aF0.3900679617655328
abag1
(g24
g3
Ntp7311
Rp7312
(lp7313
F-0.023448667387824865
aF0.7204015257622374
aF0.01110650899127047
aF0.6930717474657315
abababag1
(g2
g3
Ntp7314
Rp7315
(lp7316
g1
(g7
g3
Ntp7317
Rp7318
(lp7319
I0
ag1
(g11
g3
Ntp7320
Rp7321
(lp7322
I1607448859
aI192914962
abaS'world'
p7323
abag1
(g16
g3
Ntp7324
Rp7325
(lp7326
g1
(g20
g3
Ntp7327
Rp7328
(lp7329
F-0.27474765585247346
aF-0.02205629918017664
aF0.3916391772808042
abag1
(g24
g3
Ntp7330
Rp7331
(lp7332
F-0.025557210833940233
aF0.7214182676378285
aF0.014399579109280136
aF0.6918779980706856
abababag1
(g2
g3
Ntp7333
Rp7334
(lp7335
g1
(g7
g3
Ntp7336
Rp7337
(lp7338
I0
ag1
(g11
g3
Ntp7339
Rp7340
(lp7341
I1607448859
aI225157976
abaS'world'
p7342
abag1
(g16
g3
Ntp7343
Rp7344
(lp7345
g1
(g20
g3
Ntp7346
Rp7347
(lp7348
F-0.27617978150773204
aF-0.024515658767972986
aF0.393037669198265
abag1
(g24
g3
Ntp7349
Rp7350
(lp7351
F-0.027834048589316086
aF0.7222127791286314
aF0.017576598525058634
aF0.6908871330302188
abababag1
(g2
g3
Ntp7352
Rp7353
(lp7354
g1
(g7
g3
Ntp7355
Rp7356
(lp7357
I0
ag1
(g11
g3
Ntp7358
Rp7359
(lp7360
I1607448859
aI257277965
abaS'world'
p7361
abag1
(g16
g3
Ntp7362
Rp7363
(lp7364
g1
(g20
g3
Ntp7365
Rp7366
(lp7367
F-0.2776694771055552
aF-0.027076729074332867
aF0.3944112233487359
abag1
(g24
g3
Ntp7368
Rp7369
(lp7370
F-0.030247725132596985
aF0.7229448444938775
aF0.020843593681943478
aF0.6899285264043287
abababag1
(g2
g3
Ntp7371
Rp7372
(lp7373
g1
(g7
g3
Ntp7374
Rp7375
(lp7376
I0
ag1
(g11
g3
Ntp7377
Rp7378
(lp7379
I1607448859
aI288881063
abaS'world'
p7380
abag1
(g16
g3
Ntp7381
Rp7382
(lp7383
g1
(g20
g3
Ntp7384
Rp7385
(lp7386
F-0.2792559651599728
aF-0.02974659008673318
aF0.3955659043582803
abag1
(g24
g3
Ntp7387
Rp7388
(lp7389
F-0.033027793480181686
aF0.7233279137371315
aF0.024038906822722046
aF0.6892953104622779
abababag1
(g2
g3
Ntp7390
Rp7391
(lp7392
g1
(g7
g3
Ntp7393
Rp7394
(lp7395
I0
ag1
(g11
g3
Ntp7396
Rp7397
(lp7398
I1607448859
aI321275949
abaS'world'
p7399
abag1
(g16
g3
Ntp7400
Rp7401
(lp7402
g1
(g20
g3
Ntp7403
Rp7404
(lp7405
F-0.28082176749663057
aF-0.03247592170690014
aF0.3963987958879789
abag1
(g24
g3
Ntp7406
Rp7407
(lp7408
F-0.03615679325334064
aF0.7230872461174406
aF0.02693864668285609
aF0.6892835629251779
abababag1
(g2
g3
Ntp7409
Rp7410
(lp7411
g1
(g7
g3
Ntp7412
Rp7413
(lp7414
I0
ag1
(g11
g3
Ntp7415
Rp7416
(lp7417
I1607448859
aI352600097
abaS'world'
p7418
abag1
(g16
g3
Ntp7419
Rp7420
(lp7421
g1
(g20
g3
Ntp7422
Rp7423
(lp7424
F-0.2822052881803284
aF-0.03527932404401097
aF0.3970016907357587
abag1
(g24
g3
Ntp7425
Rp7426
(lp7427
F-0.03966618920922733
aF0.7221351697512528
aF0.0294129609192131
aF0.6899871504397111
abababag1
(g2
g3
Ntp7428
Rp7429
(lp7430
g1
(g7
g3
Ntp7431
Rp7432
(lp7433
I0
ag1
(g11
g3
Ntp7434
Rp7435
(lp7436
I1607448859
aI385207891
abaS'world'
p7437
abag1
(g16
g3
Ntp7438
Rp7439
(lp7440
g1
(g20
g3
Ntp7441
Rp7442
(lp7443
F-0.28346202490926037
aF-0.038163706276675355
aF0.3973843098322827
abag1
(g24
g3
Ntp7444
Rp7445
(lp7446
F-0.043551248278537416
aF0.7205604168383951
aF0.03158442304826515
aF0.6913019591175538
abababag1
(g2
g3
Ntp7447
Rp7448
(lp7449
g1
(g7
g3
Ntp7450
Rp7451
(lp7452
I0
ag1
(g11
g3
Ntp7453
Rp7454
(lp7455
I1607448859
aI417140960
abaS'world'
p7456
abag1
(g16
g3
Ntp7457
Rp7458
(lp7459
g1
(g20
g3
Ntp7460
Rp7461
(lp7462
F-0.28462902517675587
aF-0.0410090458511473
aF0.39770358722586996
abag1
(g24
g3
Ntp7463
Rp7464
(lp7465
F-0.04737468858703618
aF0.7188209997280699
aF0.03362744236576034
aF0.6927634548322806
abababag1
(g2
g3
Ntp7466
Rp7467
(lp7468
g1
(g7
g3
Ntp7469
Rp7470
(lp7471
I0
ag1
(g11
g3
Ntp7472
Rp7473
(lp7474
I1607448859
aI449100017
abaS'world'
p7475
abag1
(g16
g3
Ntp7476
Rp7477
(lp7478
g1
(g20
g3
Ntp7479
Rp7480
(lp7481
F-0.28577000077489995
aF-0.04381656425054944
aF0.39791666817422433
abag1
(g24
g3
Ntp7482
Rp7483
(lp7484
F-0.051260675039877183
aF0.716924478166058
aF0.03561877181722572
aF0.6943507319035636
abababag1
(g2
g3
Ntp7485
Rp7486
(lp7487
g1
(g7
g3
Ntp7488
Rp7489
(lp7490
I0
ag1
(g11
g3
Ntp7491
Rp7492
(lp7493
I1607448859
aI488872051
abaS'world'
p7494
abag1
(g16
g3
Ntp7495
Rp7496
(lp7497
g1
(g20
g3
Ntp7498
Rp7499
(lp7500
F-0.2869021553308635
aF-0.04725321130478117
aF0.39796729565870625
abag1
(g24
g3
Ntp7501
Rp7502
(lp7503
F-0.05628125920022217
aF0.7138863256657825
aF0.03754118379396086
aF0.6969859348721423
abababag1
(g2
g3
Ntp7504
Rp7505
(lp7506
g1
(g7
g3
Ntp7507
Rp7508
(lp7509
I0
ag1
(g11
g3
Ntp7510
Rp7511
(lp7512
I1607448859
aI528762102
abaS'world'
p7513
abag1
(g16
g3
Ntp7514
Rp7515
(lp7516
g1
(g20
g3
Ntp7517
Rp7518
(lp7519
F-0.28784525013598555
aF-0.050719824110431834
aF0.39815881185956087
abag1
(g24
g3
Ntp7520
Rp7521
(lp7522
F-0.06123949528935675
aF0.7107988037276066
aF0.039491411598207626
aF0.6996107583836096
abababag1
(g2
g3
Ntp7523
Rp7524
(lp7525
g1
(g7
g3
Ntp7526
Rp7527
(lp7528
I0
ag1
(g11
g3
Ntp7529
Rp7530
(lp7531
I1607448859
aI561233043
abaS'world'
p7532
abag1
(g16
g3
Ntp7533
Rp7534
(lp7535
g1
(g20
g3
Ntp7536
Rp7537
(lp7538
F-0.28867673543787276
aF-0.05356912347293016
aF0.3988474704754149
abag1
(g24
g3
Ntp7539
Rp7540
(lp7541
F-0.06479186128401597
aF0.7092746023369627
aF0.041664162912272984
aF0.7007108181838755
abababag1
(g2
g3
Ntp7542
Rp7543
(lp7544
g1
(g7
g3
Ntp7545
Rp7546
(lp7547
I0
ag1
(g11
g3
Ntp7548
Rp7549
(lp7550
I1607448859
aI593472003
abaS'world'
p7551
abag1
(g16
g3
Ntp7552
Rp7553
(lp7554
g1
(g20
g3
Ntp7555
Rp7556
(lp7557
F-0.2893334778741412
aF-0.056438647643937
aF0.40005210248679884
abag1
(g24
g3
Ntp7558
Rp7559
(lp7560
F-0.06792651342699622
aF0.7084446419177866
aF0.044238545744899986
aF0.701095663359864
abababag1
(g2
g3
Ntp7561
Rp7562
(lp7563
g1
(g7
g3
Ntp7564
Rp7565
(lp7566
I0
ag1
(g11
g3
Ntp7567
Rp7568
(lp7569
I1607448859
aI624950885
abaS'world'
p7570
abag1
(g16
g3
Ntp7571
Rp7572
(lp7573
g1
(g20
g3
Ntp7574
Rp7575
(lp7576
F-0.2899545209895996
aF-0.059345844705304206
aF0.40165292881507897
abag1
(g24
g3
Ntp7577
Rp7578
(lp7579
F-0.07081988755128042
aF0.7082794326523622
aF0.047152967404268706
aF0.7007862630459047
abababag1
(g2
g3
Ntp7580
Rp7581
(lp7582
g1
(g7
g3
Ntp7583
Rp7584
(lp7585
I0
ag1
(g11
g3
Ntp7586
Rp7587
(lp7588
I1607448859
aI656816959
abaS'world'
p7589
abag1
(g16
g3
Ntp7590
Rp7591
(lp7592
g1
(g20
g3
Ntp7593
Rp7594
(lp7595
F-0.2906683686600447
aF-0.06229489907419024
aF0.4034347820850154
abag1
(g24
g3
Ntp7596
Rp7597
(lp7598
F-0.07352819437307005
aF0.7085621884692908
aF0.05042000651002145
aF0.6999936090046643
abababag1
(g2
g3
Ntp7599
Rp7600
(lp7601
g1
(g7
g3
Ntp7602
Rp7603
(lp7604
I0
ag1
(g11
g3
Ntp7605
Rp7606
(lp7607
I1607448859
aI689095020
abaS'world'
p7608
abag1
(g16
g3
Ntp7609
Rp7610
(lp7611
g1
(g20
g3
Ntp7612
Rp7613
(lp7614
F-0.2915749677897886
aF-0.06515032094554021
aF0.4053671371705435
abag1
(g24
g3
Ntp7615
Rp7616
(lp7617
F-0.07584805808174612
aF0.7096411284221599
aF0.054102707983631364
aF0.6983762867722455
abababag1
(g2
g3
Ntp7618
Rp7619
(lp7620
g1
(g7
g3
Ntp7621
Rp7622
(lp7623
I0
ag1
(g11
g3
Ntp7624
Rp7625
(lp7626
I1607448859
aI721074104
abaS'world'
p7627
abag1
(g16
g3
Ntp7628
Rp7629
(lp7630
g1
(g20
g3
Ntp7631
Rp7632
(lp7633
F-0.29253853940725916
aF-0.06778670407321954
aF0.4071659319635824
abag1
(g24
g3
Ntp7634
Rp7635
(lp7636
F-0.07790397999710649
aF0.7109236672597804
aF0.05769106152710836
aF0.6965559924732477
abababag1
(g2
g3
Ntp7637
Rp7638
(lp7639
g1
(g7
g3
Ntp7640
Rp7641
(lp7642
I0
ag1
(g11
g3
Ntp7643
Rp7644
(lp7645
I1607448859
aI752964019
abaS'world'
p7646
abag1
(g16
g3
Ntp7647
Rp7648
(lp7649
g1
(g20
g3
Ntp7650
Rp7651
(lp7652
F-0.29351208293308156
aF-0.0704162997519808
aF0.40886906672859835
abag1
(g24
g3
Ntp7653
Rp7654
(lp7655
F-0.08003127556050173
aF0.7120854456956811
aF0.06121843406511431
aF0.6948248817444275
abababag1
(g2
g3
Ntp7656
Rp7657
(lp7658
g1
(g7
g3
Ntp7659
Rp7660
(lp7661
I0
ag1
(g11
g3
Ntp7662
Rp7663
(lp7664
I1607448859
aI785145044
abaS'world'
p7665
abag1
(g16
g3
Ntp7666
Rp7667
(lp7668
g1
(g20
g3
Ntp7669
Rp7670
(lp7671
F-0.29451453061201704
aF-0.07292445216348938
aF0.4102121848458945
abag1
(g24
g3
Ntp7672
Rp7673
(lp7674
F-0.08231104796837067
aF0.712821848184223
aF0.06440112281106089
aF0.6935145272553791
abababag1
(g2
g3
Ntp7675
Rp7676
(lp7677
g1
(g7
g3
Ntp7678
Rp7679
(lp7680
I0
ag1
(g11
g3
Ntp7681
Rp7682
(lp7683
I1607448859
aI824870109
abaS'world'
p7684
abag1
(g16
g3
Ntp7685
Rp7686
(lp7687
g1
(g20
g3
Ntp7688
Rp7689
(lp7690
F-0.2958485494168674
aF-0.07597808352405148
aF0.41125661410353287
abag1
(g24
g3
Ntp7691
Rp7692
(lp7693
F-0.08546571903313882
aF0.7129042248802818
aF0.06790680157201083
aF0.6927133919004692
abababag1
(g2
g3
Ntp7694
Rp7695
(lp7696
g1
(g7
g3
Ntp7697
Rp7698
(lp7699
I0
ag1
(g11
g3
Ntp7700
Rp7701
(lp7702
I1607448859
aI865314960
abaS'world'
p7703
abag1
(g16
g3
Ntp7704
Rp7705
(lp7706
g1
(g20
g3
Ntp7707
Rp7708
(lp7709
F-0.29718704485106234
aF-0.07902262249860494
aF0.41172936591716874
abag1
(g24
g3
Ntp7710
Rp7711
(lp7712
F-0.08907539317087446
aF0.7119563164113726
aF0.0709395943978215
aF0.6929295431716535
abababag1
(g2
g3
Ntp7713
Rp7714
(lp7715
g1
(g7
g3
Ntp7716
Rp7717
(lp7718
I0
ag1
(g11
g3
Ntp7719
Rp7720
(lp7721
I1607448859
aI904977083
abaS'world'
p7722
abag1
(g16
g3
Ntp7723
Rp7724
(lp7725
g1
(g20
g3
Ntp7726
Rp7727
(lp7728
F-0.2980929004161492
aF-0.08215336415848794
aF0.41145425225589977
abag1
(g24
g3
Ntp7729
Rp7730
(lp7731
F-0.09363739015754871
aF0.7087922206399081
aF0.07287801559586339
aF0.6953663940453552
abababag1
(g2
g3
Ntp7732
Rp7733
(lp7734
g1
(g7
g3
Ntp7735
Rp7736
(lp7737
I0
ag1
(g11
g3
Ntp7738
Rp7739
(lp7740
I1607448859
aI944799900
abaS'world'
p7741
abag1
(g16
g3
Ntp7742
Rp7743
(lp7744
g1
(g20
g3
Ntp7745
Rp7746
(lp7747
F-0.2985123878128608
aF-0.08543304117262418
aF0.41059526594022966
abag1
(g24
g3
Ntp7748
Rp7749
(lp7750
F-0.09919702745006459
aF0.7037302670527921
aF0.0736401965349667
aF0.6996433251544452
abababag1
(g2
g3
Ntp7751
Rp7752
(lp7753
g1
(g7
g3
Ntp7754
Rp7755
(lp7756
I0
ag1
(g11
g3
Ntp7757
Rp7758
(lp7759
I1607448859
aI984774112
abaS'world'
p7760
abag1
(g16
g3
Ntp7761
Rp7762
(lp7763
g1
(g20
g3
Ntp7764
Rp7765
(lp7766
F-0.2989168293473021
aF-0.08905677504372544
aF0.4098830877469412
abag1
(g24
g3
Ntp7767
Rp7768
(lp7769
F-0.10579724419450105
aF0.6990102782285649
aF0.07350361326443752
aF0.7034122496010042
abababag1
(g2
g3
Ntp7770
Rp7771
(lp7772
g1
(g7
g3
Ntp7773
Rp7774
(lp7775
I0
ag1
(g11
g3
Ntp7776
Rp7777
(lp7778
I1607448860
aI17188072
abaS'world'
p7779
abag1
(g16
g3
Ntp7780
Rp7781
(lp7782
g1
(g20
g3
Ntp7783
Rp7784
(lp7785
F-0.299160788263992
aF-0.09229520767878266
aF0.4094950210432273
abag1
(g24
g3
Ntp7786
Rp7787
(lp7788
F-0.11205275735408306
aF0.6956721313353841
aF0.07243707239588554
aF0.7058592889488275
abababag1
(g2
g3
Ntp7789
Rp7790
(lp7791
g1
(g7
g3
Ntp7792
Rp7793
(lp7794
I0
ag1
(g11
g3
Ntp7795
Rp7796
(lp7797
I1607448860
aI48858880
abaS'world'
p7798
abag1
(g16
g3
Ntp7799
Rp7800
(lp7801
g1
(g20
g3
Ntp7802
Rp7803
(lp7804
F-0.2995346227968161
aF-0.09555906070806083
aF0.4095230661644904
abag1
(g24
g3
Ntp7805
Rp7806
(lp7807
F-0.11828581994828075
aF0.6935456133954594
aF0.07128907984145413
aF0.7070507860362208
abababag1
(g2
g3
Ntp7808
Rp7809
(lp7810
g1
(g7
g3
Ntp7811
Rp7812
(lp7813
I0
ag1
(g11
g3
Ntp7814
Rp7815
(lp7816
I1607448860
aI80965995
abaS'world'
p7817
abag1
(g16
g3
Ntp7818
Rp7819
(lp7820
g1
(g20
g3
Ntp7821
Rp7822
(lp7823
F-0.2999751654364075
aF-0.09897482686400093
aF0.40987304210886905
abag1
(g24
g3
Ntp7824
Rp7825
(lp7826
F-0.12488398358254185
aF0.6924626537002506
aF0.0696451931677209
aF0.7071414363078954
abababag1
(g2
g3
Ntp7827
Rp7828
(lp7829
g1
(g7
g3
Ntp7830
Rp7831
(lp7832
I0
ag1
(g11
g3
Ntp7833
Rp7834
(lp7835
I1607448860
aI112931966
abaS'world'
p7836
abag1
(g16
g3
Ntp7837
Rp7838
(lp7839
g1
(g20
g3
Ntp7840
Rp7841
(lp7842
F-0.3003672502680063
aF-0.10223843896331543
aF0.4106343313669608
abag1
(g24
g3
Ntp7843
Rp7844
(lp7845
F-0.13091998060512003
aF0.6922244630368518
aF0.06835163766107182
aF0.706408737970268
abababag1
(g2
g3
Ntp7846
Rp7847
(lp7848
g1
(g7
g3
Ntp7849
Rp7850
(lp7851
I0
ag1
(g11
g3
Ntp7852
Rp7853
(lp7854
I1607448860
aI144623994
abaS'world'
p7855
abag1
(g16
g3
Ntp7856
Rp7857
(lp7858
g1
(g20
g3
Ntp7859
Rp7860
(lp7861
F-0.30074700165816415
aF-0.10535630745569922
aF0.41188653411438514
abag1
(g24
g3
Ntp7862
Rp7863
(lp7864
F-0.13636239654634738
aF0.6931605385789883
aF0.06741092139930707
aF0.7045491694985667
abababag1
(g2
g3
Ntp7865
Rp7866
(lp7867
g1
(g7
g3
Ntp7868
Rp7869
(lp7870
I0
ag1
(g11
g3
Ntp7871
Rp7872
(lp7873
I1607448860
aI176985025
abaS'world'
p7874
abag1
(g16
g3
Ntp7875
Rp7876
(lp7877
g1
(g20
g3
Ntp7878
Rp7879
(lp7880
F-0.30125647202688394
aF-0.10829108118841983
aF0.4136006568891884
abag1
(g24
g3
Ntp7881
Rp7882
(lp7883
F-0.140843840801534
aF0.6952310868562918
aF0.06751552703746805
aF0.7016112898077856
abababag1
(g2
g3
Ntp7884
Rp7885
(lp7886
g1
(g7
g3
Ntp7887
Rp7888
(lp7889
I0
ag1
(g11
g3
Ntp7890
Rp7891
(lp7892
I1607448860
aI209363937
abaS'world'
p7893
abag1
(g16
g3
Ntp7894
Rp7895
(lp7896
g1
(g20
g3
Ntp7897
Rp7898
(lp7899
F-0.30168495722367045
aF-0.1109986732079286
aF0.4153422497170596
abag1
(g24
g3
Ntp7900
Rp7901
(lp7902
F-0.14450189862861462
aF0.6971371147274339
aF0.06855511334968939
aF0.6988699743127083
abababag1
(g2
g3
Ntp7903
Rp7904
(lp7905
g1
(g7
g3
Ntp7906
Rp7907
(lp7908
I0
ag1
(g11
g3
Ntp7909
Rp7910
(lp7911
I1607448860
aI241038084
abaS'world'
p7912
abag1
(g16
g3
Ntp7913
Rp7914
(lp7915
g1
(g20
g3
Ntp7916
Rp7917
(lp7918
F-0.3021052510211579
aF-0.11350143763098404
aF0.4169508197202
abag1
(g24
g3
Ntp7919
Rp7920
(lp7921
F-0.14755528177348431
aF0.698698197647514
aF0.07008832567533818
aF0.6965169732525484
abababag1
(g2
g3
Ntp7922
Rp7923
(lp7924
g1
(g7
g3
Ntp7925
Rp7926
(lp7927
I0
ag1
(g11
g3
Ntp7928
Rp7929
(lp7930
I1607448860
aI280807018
abaS'world'
p7931
abag1
(g16
g3
Ntp7932
Rp7933
(lp7934
g1
(g20
g3
Ntp7935
Rp7936
(lp7937
F-0.3025796396699182
aF-0.11632277650606528
aF0.4188051080898501
abag1
(g24
g3
Ntp7938
Rp7939
(lp7940
F-0.15037593586745665
aF0.7000997397528912
aF0.07302409149847679
aF0.6942009178694184
abababag1
(g2
g3
Ntp7941
Rp7942
(lp7943
g1
(g7
g3
Ntp7944
Rp7945
(lp7946
I0
ag1
(g11
g3
Ntp7947
Rp7948
(lp7949
I1607448860
aI321187973
abaS'world'
p7950
abag1
(g16
g3
Ntp7951
Rp7952
(lp7953
g1
(g20
g3
Ntp7954
Rp7955
(lp7956
F-0.3032405331905463
aF-0.11912141745367713
aF0.420318059878409
abag1
(g24
g3
Ntp7957
Rp7958
(lp7959
F-0.15288749842509325
aF0.7008745993009746
aF0.07669224085096166
aF0.6924727496972526
abababag1
(g2
g3
Ntp7960
Rp7961
(lp7962
g1
(g7
g3
Ntp7963
Rp7964
(lp7965
I0
ag1
(g11
g3
Ntp7966
Rp7967
(lp7968
I1607448860
aI361190080
abaS'world'
p7969
abag1
(g16
g3
Ntp7970
Rp7971
(lp7972
g1
(g20
g3
Ntp7973
Rp7974
(lp7975
F-0.30395815840745116
aF-0.12194238448731895
aF0.42172983757277616
abag1
(g24
g3
Ntp7976
Rp7977
(lp7978
F-0.15548093435559576
aF0.7015698858938954
aF0.08028811106194264
aF0.6907815816022045
abababag1
(g2
g3
Ntp7979
Rp7980
(lp7981
g1
(g7
g3
Ntp7982
Rp7983
(lp7984
I0
ag1
(g11
g3
Ntp7985
Rp7986
(lp7987
I1607448860
aI400688886
abaS'world'
p7988
abag1
(g16
g3
Ntp7989
Rp7990
(lp7991
g1
(g20
g3
Ntp7992
Rp7993
(lp7994
F-0.30493911925720046
aF-0.12514094066532241
aF0.4229877755099509
abag1
(g24
g3
Ntp7995
Rp7996
(lp7997
F-0.15857485990126532
aF0.7019852985589056
aF0.08426869057658776
aF0.6891802682919513
abababag1
(g2
g3
Ntp7998
Rp7999
(lp8000
g1
(g7
g3
Ntp8001
Rp8002
(lp8003
I0
ag1
(g11
g3
Ntp8004
Rp8005
(lp8006
I1607448860
aI441159009
abaS'world'
p8007
abag1
(g16
g3
Ntp8008
Rp8009
(lp8010
g1
(g20
g3
Ntp8011
Rp8012
(lp8013
F-0.30619290550119443
aF-0.12836278530620931
aF0.423838898264022
abag1
(g24
g3
Ntp8014
Rp8015
(lp8016
F-0.16187575218361355
aF0.7020192220157996
aF0.08816142908284345
aF0.6878901185490249
abababag1
(g2
g3
Ntp8017
Rp8018
(lp8019
g1
(g7
g3
Ntp8020
Rp8021
(lp8022
I0
ag1
(g11
g3
Ntp8023
Rp8024
(lp8025
I1607448860
aI481014966
abaS'world'
p8026
abag1
(g16
g3
Ntp8027
Rp8028
(lp8029
g1
(g20
g3
Ntp8030
Rp8031
(lp8032
F-0.30760044025109656
aF-0.1315590446976782
aF0.4243320978628895
abag1
(g24
g3
Ntp8033
Rp8034
(lp8035
F-0.1653304818533915
aF0.7016675456318103
aF0.09190290310167401
aF0.6869369283847253
abababag1
(g2
g3
Ntp8036
Rp8037
(lp8038
g1
(g7
g3
Ntp8039
Rp8040
(lp8041
I0
ag1
(g11
g3
Ntp8042
Rp8043
(lp8044
I1607448860
aI521047115
abaS'world'
p8045
abag1
(g16
g3
Ntp8046
Rp8047
(lp8048
g1
(g20
g3
Ntp8049
Rp8050
(lp8051
F-0.3090561916177753
aF-0.1346887412570428
aF0.4246260413507809
abag1
(g24
g3
Ntp8052
Rp8053
(lp8054
F-0.16875691015255653
aF0.7011073864317814
aF0.09547696071158683
aF0.6861877934937616
abababag1
(g2
g3
Ntp8055
Rp8056
(lp8057
g1
(g7
g3
Ntp8058
Rp8059
(lp8060
I0
ag1
(g11
g3
Ntp8061
Rp8062
(lp8063
I1607448860
aI560590028
abaS'world'
p8064
abag1
(g16
g3
Ntp8065
Rp8066
(lp8067
g1
(g20
g3
Ntp8068
Rp8069
(lp8070
F-0.3104736231760178
aF-0.1377086224576388
aF0.42484849783324014
abag1
(g24
g3
Ntp8071
Rp8072
(lp8073
F-0.17204316374459683
aF0.700512366314414
aF0.09889753053700807
aF0.6854946045761495
abababag1
(g2
g3
Ntp8074
Rp8075
(lp8076
g1
(g7
g3
Ntp8077
Rp8078
(lp8079
I0
ag1
(g11
g3
Ntp8080
Rp8081
(lp8082
I1607448860
aI601054906
abaS'world'
p8083
abag1
(g16
g3
Ntp8084
Rp8085
(lp8086
g1
(g20
g3
Ntp8087
Rp8088
(lp8089
F-0.31179777875385795
aF-0.1406754476431613
aF0.42508941229147706
abag1
(g24
g3
Ntp8090
Rp8091
(lp8092
F-0.17530073248538525
aF0.6999273868431037
aF0.10221489557837649
aF0.6847798342963769
abababag1
(g2
g3
Ntp8093
Rp8094
(lp8095
g1
(g7
g3
Ntp8096
Rp8097
(lp8098
I0
ag1
(g11
g3
Ntp8099
Rp8100
(lp8101
I1607448860
aI640696048
abaS'world'
p8102
abag1
(g16
g3
Ntp8103
Rp8104
(lp8105
g1
(g20
g3
Ntp8106
Rp8107
(lp8108
F-0.3130437196594358
aF-0.14382873889632258
aF0.42558824328390016
abag1
(g24
g3
Ntp8109
Rp8110
(lp8111
F-0.1786186515605003
aF0.6995565803774996
aF0.10581903409624167
aF0.6837530988508834
abababag1
(g2
g3
Ntp8112
Rp8113
(lp8114
g1
(g7
g3
Ntp8115
Rp8116
(lp8117
I0
ag1
(g11
g3
Ntp8118
Rp8119
(lp8120
I1607448860
aI681217908
abaS'world'
p8121
abag1
(g16
g3
Ntp8122
Rp8123
(lp8124
g1
(g20
g3
Ntp8125
Rp8126
(lp8127
F-0.3140887801328682
aF-0.1470382196977164
aF0.4263632336113567
abag1
(g24
g3
Ntp8128
Rp8129
(lp8130
F-0.1818898651053666
aF0.6994270250853296
aF0.10955810229805506
aF0.6824330998516166
abababag1
(g2
g3
Ntp8131
Rp8132
(lp8133
g1
(g7
g3
Ntp8134
Rp8135
(lp8136
I0
ag1
(g11
g3
Ntp8137
Rp8138
(lp8139
I1607448860
aI721096038
abaS'world'
p8140
abag1
(g16
g3
Ntp8141
Rp8142
(lp8143
g1
(g20
g3
Ntp8144
Rp8145
(lp8146
F-0.3149684759834457
aF-0.15032077891738568
aF0.4274142663733185
abag1
(g24
g3
Ntp8147
Rp8148
(lp8149
F-0.18514678418937217
aF0.6995447254098224
aF0.11347536702791361
aF0.6807945259279855
abababag1
(g2
g3
Ntp8150
Rp8151
(lp8152
g1
(g7
g3
Ntp8153
Rp8154
(lp8155
I0
ag1
(g11
g3
Ntp8156
Rp8157
(lp8158
I1607448860
aI760916948
abaS'world'
p8159
abag1
(g16
g3
Ntp8160
Rp8161
(lp8162
g1
(g20
g3
Ntp8163
Rp8164
(lp8165
F-0.3157736430466577
aF-0.15366109884971765
aF0.42855705749395434
abag1
(g24
g3
Ntp8166
Rp8167
(lp8168
F-0.18839671025437071
aF0.6997192065852993
aF0.11746721224071983
aF0.6790443030829166
abababag1
(g2
g3
Ntp8169
Rp8170
(lp8171
g1
(g7
g3
Ntp8172
Rp8173
(lp8174
I0
ag1
(g11
g3
Ntp8175
Rp8176
(lp8177
I1607448860
aI801060914
abaS'world'
p8178
abag1
(g16
g3
Ntp8179
Rp8180
(lp8181
g1
(g20
g3
Ntp8182
Rp8183
(lp8184
F-0.3165449287296121
aF-0.15684006576014398
aF0.4295906533911828
abag1
(g24
g3
Ntp8185
Rp8186
(lp8187
F-0.19157086065128373
aF0.699837404086921
aF0.12116623784753106
aF0.6773824296481876
abababag1
(g2
g3
Ntp8188
Rp8189
(lp8190
g1
(g7
g3
Ntp8191
Rp8192
(lp8193
I0
ag1
(g11
g3
Ntp8194
Rp8195
(lp8196
I1607448860
aI840928077
abaS'world'
p8197
abag1
(g16
g3
Ntp8198
Rp8199
(lp8200
g1
(g20
g3
Ntp8201
Rp8202
(lp8203
F-0.3174404206930125
aF-0.1602408325402367
aF0.4305088795031146
abag1
(g24
g3
Ntp8204
Rp8205
(lp8206
F-0.19497617639483109
aF0.6997420147083918
aF0.12514273305003756
aF0.6757845069658374
abababag1
(g2
g3
Ntp8207
Rp8208
(lp8209
g1
(g7
g3
Ntp8210
Rp8211
(lp8212
I0
ag1
(g11
g3
Ntp8213
Rp8214
(lp8215
I1607448860
aI881123065
abaS'world'
p8216
abag1
(g16
g3
Ntp8217
Rp8218
(lp8219
g1
(g20
g3
Ntp8220
Rp8221
(lp8222
F-0.3183373167481481
aF-0.16369733150062446
aF0.43136553222371843
abag1
(g24
g3
Ntp8223
Rp8224
(lp8225
F-0.19857954522604981
aF0.6995889114230934
aF0.12892482645073772
aF0.6741809166361165
abababag1
(g2
g3
Ntp8226
Rp8227
(lp8228
g1
(g7
g3
Ntp8229
Rp8230
(lp8231
I0
ag1
(g11
g3
Ntp8232
Rp8233
(lp8234
I1607448860
aI921211004
abaS'world'
p8235
abag1
(g16
g3
Ntp8236
Rp8237
(lp8238
g1
(g20
g3
Ntp8239
Rp8240
(lp8241
F-0.3192099785671892
aF-0.16709867996626432
aF0.4321699675817108
abag1
(g24
g3
Ntp8242
Rp8243
(lp8244
F-0.2020275972064073
aF0.6993318686161769
aF0.1328178277405441
aF0.6726657506808973
abababag1
(g2
g3
Ntp8245
Rp8246
(lp8247
g1
(g7
g3
Ntp8248
Rp8249
(lp8250
I0
ag1
(g11
g3
Ntp8251
Rp8252
(lp8253
I1607448860
aI960838079
abaS'world'
p8254
abag1
(g16
g3
Ntp8255
Rp8256
(lp8257
g1
(g20
g3
Ntp8258
Rp8259
(lp8260
F-0.3201913896229523
aF-0.17019170826203844
aF0.432547639159201
abag1
(g24
g3
Ntp8261
Rp8262
(lp8263
F-0.2052989288410952
aF0.6987397691922563
aF0.13616700599396042
aF0.6716201539892115
abababag1
(g2
g3
Ntp8264
Rp8265
(lp8266
g1
(g7
g3
Ntp8267
Rp8268
(lp8269
I0
ag1
(g11
g3
Ntp8270
Rp8271
(lp8272
I1607448861
aI9167909
abaS'world'
p8273
abag1
(g16
g3
Ntp8274
Rp8275
(lp8276
g1
(g20
g3
Ntp8277
Rp8278
(lp8279
F-0.3213899333488308
aF-0.17349284541365986
aF0.4326413498791661
abag1
(g24
g3
Ntp8280
Rp8281
(lp8282
F-0.20884447465386782
aF0.6977530505184961
aF0.13970470096629362
aF0.6708258063212846
abababag1
(g2
g3
Ntp8283
Rp8284
(lp8285
g1
(g7
g3
Ntp8286
Rp8287
(lp8288
I0
ag1
(g11
g3
Ntp8289
Rp8290
(lp8291
I1607448861
aI73156118
abaS'world'
p8292
abag1
(g16
g3
Ntp8293
Rp8294
(lp8295
g1
(g20
g3
Ntp8296
Rp8297
(lp8298
F-0.3225279051152257
aF-0.17653883477124185
aF0.4326261130378405
abag1
(g24
g3
Ntp8299
Rp8300
(lp8301
F-0.21211722970862976
aF0.6967358966188774
aF0.14288885661221162
aF0.6701851579074851
abababa.